
stage3.elf:     file format elf32-i386


Disassembly of section .text:

01000000 <deregister_tm_clones-0x10>:
 1000000:	e8 cb 00 00 00       	call   10000d0 <kernel_3>
 1000005:	eb fe                	jmp    1000005 <VGA_TEXT_MEMORY+0xf48005>
 1000007:	66 90                	xchg   ax,ax
 1000009:	66 90                	xchg   ax,ax
 100000b:	66 90                	xchg   ax,ax
 100000d:	66 90                	xchg   ax,ax
 100000f:	90                   	nop

01000010 <deregister_tm_clones>:
 1000010:	b8 1c f0 01 01       	mov    eax,0x101f01c
 1000015:	3d 1c f0 01 01       	cmp    eax,0x101f01c
 100001a:	74 24                	je     1000040 <deregister_tm_clones+0x30>
 100001c:	b8 00 00 00 00       	mov    eax,0x0
 1000021:	85 c0                	test   eax,eax
 1000023:	74 1b                	je     1000040 <deregister_tm_clones+0x30>
 1000025:	55                   	push   ebp
 1000026:	89 e5                	mov    ebp,esp
 1000028:	83 ec 14             	sub    esp,0x14
 100002b:	68 1c f0 01 01       	push   0x101f01c
 1000030:	ff d0                	call   eax
 1000032:	83 c4 10             	add    esp,0x10
 1000035:	c9                   	leave  
 1000036:	c3                   	ret    
 1000037:	89 f6                	mov    esi,esi
 1000039:	8d bc 27 00 00 00 00 	lea    edi,[edi+eiz*1+0x0]
 1000040:	f3 c3                	repz ret 
 1000042:	8d b4 26 00 00 00 00 	lea    esi,[esi+eiz*1+0x0]
 1000049:	8d bc 27 00 00 00 00 	lea    edi,[edi+eiz*1+0x0]

01000050 <register_tm_clones>:
 1000050:	b8 1c f0 01 01       	mov    eax,0x101f01c
 1000055:	2d 1c f0 01 01       	sub    eax,0x101f01c
 100005a:	c1 f8 02             	sar    eax,0x2
 100005d:	89 c2                	mov    edx,eax
 100005f:	c1 ea 1f             	shr    edx,0x1f
 1000062:	01 d0                	add    eax,edx
 1000064:	d1 f8                	sar    eax,1
 1000066:	74 20                	je     1000088 <register_tm_clones+0x38>
 1000068:	ba 00 00 00 00       	mov    edx,0x0
 100006d:	85 d2                	test   edx,edx
 100006f:	74 17                	je     1000088 <register_tm_clones+0x38>
 1000071:	55                   	push   ebp
 1000072:	89 e5                	mov    ebp,esp
 1000074:	83 ec 10             	sub    esp,0x10
 1000077:	50                   	push   eax
 1000078:	68 1c f0 01 01       	push   0x101f01c
 100007d:	ff d2                	call   edx
 100007f:	83 c4 10             	add    esp,0x10
 1000082:	c9                   	leave  
 1000083:	c3                   	ret    
 1000084:	8d 74 26 00          	lea    esi,[esi+eiz*1+0x0]
 1000088:	f3 c3                	repz ret 
 100008a:	8d b6 00 00 00 00    	lea    esi,[esi+0x0]

01000090 <__do_global_dtors_aux>:
 1000090:	80 3d 00 00 02 01 00 	cmp    BYTE PTR ds:0x1020000,0x0
 1000097:	75 17                	jne    10000b0 <__do_global_dtors_aux+0x20>
 1000099:	55                   	push   ebp
 100009a:	89 e5                	mov    ebp,esp
 100009c:	83 ec 08             	sub    esp,0x8
 100009f:	e8 6c ff ff ff       	call   1000010 <deregister_tm_clones>
 10000a4:	c6 05 00 00 02 01 01 	mov    BYTE PTR ds:0x1020000,0x1
 10000ab:	c9                   	leave  
 10000ac:	c3                   	ret    
 10000ad:	8d 76 00             	lea    esi,[esi+0x0]
 10000b0:	f3 c3                	repz ret 
 10000b2:	8d b4 26 00 00 00 00 	lea    esi,[esi+eiz*1+0x0]
 10000b9:	8d bc 27 00 00 00 00 	lea    edi,[edi+eiz*1+0x0]

010000c0 <frame_dummy>:
 10000c0:	55                   	push   ebp
 10000c1:	89 e5                	mov    ebp,esp
 10000c3:	5d                   	pop    ebp
 10000c4:	eb 8a                	jmp    1000050 <register_tm_clones>
 10000c6:	66 90                	xchg   ax,ax
 10000c8:	66 90                	xchg   ax,ax
 10000ca:	66 90                	xchg   ax,ax
 10000cc:	66 90                	xchg   ax,ax
 10000ce:	66 90                	xchg   ax,ax

010000d0 <kernel_3>:
 10000d0:	83 ec 0c             	sub    esp,0xc
 10000d3:	e8 18 16 01 00       	call   10116f0 <main>
 10000d8:	90                   	nop
 10000d9:	8d b4 26 00 00 00 00 	lea    esi,[esi+eiz*1+0x0]
 10000e0:	f4                   	hlt    
 10000e1:	eb fd                	jmp    10000e0 <kernel_3+0x10>
 10000e3:	66 90                	xchg   ax,ax
 10000e5:	66 90                	xchg   ax,ax
 10000e7:	66 90                	xchg   ax,ax
 10000e9:	66 90                	xchg   ax,ax
 10000eb:	66 90                	xchg   ax,ax
 10000ed:	66 90                	xchg   ax,ax
 10000ef:	90                   	nop

010000f0 <changeContext>:
 10000f0:	55                   	push   ebp
 10000f1:	89 e5                	mov    ebp,esp
 10000f3:	5d                   	pop    ebp
 10000f4:	c3                   	ret    
 10000f5:	66 90                	xchg   ax,ax
 10000f7:	66 90                	xchg   ax,ax
 10000f9:	66 90                	xchg   ax,ax
 10000fb:	66 90                	xchg   ax,ax
 10000fd:	66 90                	xchg   ax,ax
 10000ff:	90                   	nop

01000100 <multiGetLock>:
 1000100:	55                   	push   ebp
 1000101:	89 e5                	mov    ebp,esp
 1000103:	8b 74 24 08          	mov    esi,DWORD PTR [esp+0x8]
 1000107:	f0 0f ba 2e 00       	lock bts DWORD PTR [esi],0x0
 100010c:	73 0f                	jae    100011d <multiGetLock.acquired>

0100010e <multiGetLock.locked>:
 100010e:	f3 90                	pause  
 1000110:	0f ba 26 00          	bt     DWORD PTR [esi],0x0
 1000114:	72 f8                	jb     100010e <multiGetLock.locked>
 1000116:	f0 0f ba 2e 00       	lock bts DWORD PTR [esi],0x0
 100011b:	72 f1                	jb     100010e <multiGetLock.locked>

0100011d <multiGetLock.acquired>:
 100011d:	5d                   	pop    ebp
 100011e:	c3                   	ret    

0100011f <multiTryLock>:
 100011f:	55                   	push   ebp
 1000120:	89 e5                	mov    ebp,esp
 1000122:	8b 74 24 08          	mov    esi,DWORD PTR [esp+0x8]
 1000126:	b8 01 00 00 00       	mov    eax,0x1
 100012b:	f0 0f ba 2e 00       	lock bts DWORD PTR [esi],0x0
 1000130:	73 05                	jae    1000137 <multiTryLock.acquired>
 1000132:	b8 00 00 00 00       	mov    eax,0x0

01000137 <multiTryLock.acquired>:
 1000137:	5d                   	pop    ebp
 1000138:	c3                   	ret    

01000139 <multiUnlock>:
 1000139:	55                   	push   ebp
 100013a:	89 e5                	mov    ebp,esp
 100013c:	8b 74 24 08          	mov    esi,DWORD PTR [esp+0x8]
 1000140:	0f ae f8             	sfence 
 1000143:	c7 06 00 00 00 00    	mov    DWORD PTR [esi],0x0
 1000149:	5d                   	pop    ebp
 100014a:	c3                   	ret    
 100014b:	66 90                	xchg   ax,ax
 100014d:	66 90                	xchg   ax,ax
 100014f:	90                   	nop

01000150 <singleGetLock>:
 1000150:	55                   	push   ebp
 1000151:	89 e5                	mov    ebp,esp
 1000153:	8b 74 24 08          	mov    esi,DWORD PTR [esp+0x8]
 1000157:	fa                   	cli    
 1000158:	8b 06                	mov    eax,DWORD PTR [esi]
 100015a:	85 c0                	test   eax,eax
 100015c:	74 00                	je     100015e <singleGetLock.acquired>

0100015e <singleGetLock.acquired>:
 100015e:	c7 06 01 00 00 00    	mov    DWORD PTR [esi],0x1
 1000164:	fb                   	sti    
 1000165:	5d                   	pop    ebp
 1000166:	c3                   	ret    

01000167 <singleTryLock>:
 1000167:	55                   	push   ebp
 1000168:	89 e5                	mov    ebp,esp
 100016a:	8b 74 24 08          	mov    esi,DWORD PTR [esp+0x8]
 100016e:	b8 01 00 00 00       	mov    eax,0x1
 1000173:	f0 0f ba 2e 00       	lock bts DWORD PTR [esi],0x0
 1000178:	73 05                	jae    100017f <singleTryLock.acquired>
 100017a:	b8 00 00 00 00       	mov    eax,0x0

0100017f <singleTryLock.acquired>:
 100017f:	5d                   	pop    ebp
 1000180:	c3                   	ret    

01000181 <singleUnlock>:
 1000181:	55                   	push   ebp
 1000182:	89 e5                	mov    ebp,esp
 1000184:	8b 74 24 08          	mov    esi,DWORD PTR [esp+0x8]
 1000188:	0f ae f8             	sfence 
 100018b:	c7 06 00 00 00 00    	mov    DWORD PTR [esi],0x0
 1000191:	5d                   	pop    ebp
 1000192:	c3                   	ret    
 1000193:	66 90                	xchg   ax,ax
 1000195:	66 90                	xchg   ax,ax
 1000197:	66 90                	xchg   ax,ax
 1000199:	66 90                	xchg   ax,ax
 100019b:	66 90                	xchg   ax,ax
 100019d:	66 90                	xchg   ax,ax
 100019f:	90                   	nop

010001a0 <switchToRing3>:
 10001a0:	55                   	push   ebp
 10001a1:	89 e5                	mov    ebp,esp
 10001a3:	fa                   	cli    
 10001a4:	8b 45 08             	mov    eax,DWORD PTR [ebp+0x8]
 10001a7:	8b 5d 0c             	mov    ebx,DWORD PTR [ebp+0xc]
 10001aa:	8b 4d 10             	mov    ecx,DWORD PTR [ebp+0x10]
 10001ad:	8b 55 14             	mov    edx,DWORD PTR [ebp+0x14]
 10001b0:	8e d8                	mov    ds,eax
 10001b2:	8e c0                	mov    es,eax
 10001b4:	8e e0                	mov    fs,eax
 10001b6:	8e e8                	mov    gs,eax
 10001b8:	50                   	push   eax
 10001b9:	51                   	push   ecx
 10001ba:	9c                   	pushf  
 10001bb:	81 0c 24 00 02 00 00 	or     DWORD PTR [esp],0x200
 10001c2:	53                   	push   ebx
 10001c3:	52                   	push   edx
 10001c4:	cf                   	iret   
 10001c5:	5d                   	pop    ebp
 10001c6:	c3                   	ret    
 10001c7:	66 90                	xchg   ax,ax
 10001c9:	66 90                	xchg   ax,ax
 10001cb:	66 90                	xchg   ax,ax
 10001cd:	66 90                	xchg   ax,ax
 10001cf:	90                   	nop

010001d0 <vga_print_string_at_coords>:
 10001d0:	60                   	pusha  
 10001d1:	bf 00 80 0b 00       	mov    edi,0xb8000
 10001d6:	b9 50 00 00 00       	mov    ecx,0x50
 10001db:	f7 e1                	mul    ecx
 10001dd:	01 d8                	add    eax,ebx
 10001df:	b9 02 00 00 00       	mov    ecx,0x2
 10001e4:	f7 e1                	mul    ecx
 10001e6:	01 c7                	add    edi,eax
 10001e8:	eb 0b                	jmp    10001f5 <vga_print_string_at_coords.while_condition>

010001ea <vga_print_string_at_coords.while_start>:
 10001ea:	8a 06                	mov    al,BYTE PTR [esi]
 10001ec:	b4 0f                	mov    ah,0xf
 10001ee:	66 89 07             	mov    WORD PTR [edi],ax
 10001f1:	83 c7 02             	add    edi,0x2
 10001f4:	46                   	inc    esi

010001f5 <vga_print_string_at_coords.while_condition>:
 10001f5:	8a 06                	mov    al,BYTE PTR [esi]
 10001f7:	3c 00                	cmp    al,0x0
 10001f9:	75 ef                	jne    10001ea <vga_print_string_at_coords.while_start>
 10001fb:	61                   	popa   
 10001fc:	c3                   	ret    
 10001fd:	66 90                	xchg   ax,ax
 10001ff:	90                   	nop

01000200 <callLGDT>:
 1000200:	55                   	push   ebp
 1000201:	89 e5                	mov    ebp,esp
 1000203:	8b 45 08             	mov    eax,DWORD PTR [ebp+0x8]
 1000206:	0f 01 10             	lgdtd  [eax]
 1000209:	5d                   	pop    ebp
 100020a:	c3                   	ret    
 100020b:	66 90                	xchg   ax,ax
 100020d:	66 90                	xchg   ax,ax
 100020f:	90                   	nop

01000210 <callLTR>:
 1000210:	55                   	push   ebp
 1000211:	89 e5                	mov    ebp,esp
 1000213:	66 8b 45 08          	mov    ax,WORD PTR [ebp+0x8]
 1000217:	0f 00 d8             	ltr    ax
 100021a:	5d                   	pop    ebp
 100021b:	c3                   	ret    
 100021c:	66 90                	xchg   ax,ax
 100021e:	66 90                	xchg   ax,ax

01000220 <irq0>:
 1000220:	60                   	pusha  
 1000221:	e8 4a fd 00 00       	call   100ff70 <isr_irq_0>
 1000226:	61                   	popa   
 1000227:	cf                   	iret   

01000228 <irq1>:
 1000228:	60                   	pusha  
 1000229:	e8 62 fd 00 00       	call   100ff90 <isr_irq_1>
 100022e:	61                   	popa   
 100022f:	cf                   	iret   

01000230 <irq2>:
 1000230:	60                   	pusha  
 1000231:	e8 9a fd 00 00       	call   100ffd0 <isr_irq_2>
 1000236:	61                   	popa   
 1000237:	cf                   	iret   

01000238 <irq3>:
 1000238:	60                   	pusha  
 1000239:	e8 b2 fd 00 00       	call   100fff0 <isr_irq_3>
 100023e:	61                   	popa   
 100023f:	cf                   	iret   

01000240 <irq4>:
 1000240:	60                   	pusha  
 1000241:	e8 ca fd 00 00       	call   1010010 <isr_irq_4>
 1000246:	61                   	popa   
 1000247:	cf                   	iret   

01000248 <irq5>:
 1000248:	60                   	pusha  
 1000249:	e8 e2 fd 00 00       	call   1010030 <isr_irq_5>
 100024e:	61                   	popa   
 100024f:	cf                   	iret   

01000250 <irq6>:
 1000250:	60                   	pusha  
 1000251:	e8 fa fd 00 00       	call   1010050 <isr_irq_6>
 1000256:	61                   	popa   
 1000257:	cf                   	iret   

01000258 <irq7>:
 1000258:	60                   	pusha  
 1000259:	e8 12 fe 00 00       	call   1010070 <isr_irq_7>
 100025e:	61                   	popa   
 100025f:	cf                   	iret   

01000260 <irq8>:
 1000260:	60                   	pusha  
 1000261:	e8 2a fe 00 00       	call   1010090 <isr_irq_8>
 1000266:	61                   	popa   
 1000267:	cf                   	iret   

01000268 <irq9>:
 1000268:	60                   	pusha  
 1000269:	e8 42 fe 00 00       	call   10100b0 <isr_irq_9>
 100026e:	61                   	popa   
 100026f:	cf                   	iret   

01000270 <irq10>:
 1000270:	60                   	pusha  
 1000271:	e8 5a fe 00 00       	call   10100d0 <isr_irq_10>
 1000276:	61                   	popa   
 1000277:	cf                   	iret   

01000278 <irq11>:
 1000278:	60                   	pusha  
 1000279:	e8 72 fe 00 00       	call   10100f0 <isr_irq_11>
 100027e:	61                   	popa   
 100027f:	cf                   	iret   

01000280 <irq12>:
 1000280:	60                   	pusha  
 1000281:	e8 8a fe 00 00       	call   1010110 <isr_irq_12>
 1000286:	61                   	popa   
 1000287:	cf                   	iret   

01000288 <irq13>:
 1000288:	60                   	pusha  
 1000289:	e8 a2 fe 00 00       	call   1010130 <isr_irq_13>
 100028e:	61                   	popa   
 100028f:	cf                   	iret   

01000290 <irq14>:
 1000290:	60                   	pusha  
 1000291:	e8 ba fe 00 00       	call   1010150 <isr_irq_14>
 1000296:	61                   	popa   
 1000297:	cf                   	iret   

01000298 <irq15>:
 1000298:	60                   	pusha  
 1000299:	e8 d2 fe 00 00       	call   1010170 <isr_irq_15>
 100029e:	61                   	popa   
 100029f:	cf                   	iret   

010002a0 <callLIDT>:
 10002a0:	55                   	push   ebp
 10002a1:	89 e5                	mov    ebp,esp
 10002a3:	8b 45 08             	mov    eax,DWORD PTR [ebp+0x8]
 10002a6:	0f 01 18             	lidtd  [eax]
 10002a9:	5d                   	pop    ebp
 10002aa:	c3                   	ret    
 10002ab:	66 90                	xchg   ax,ax
 10002ad:	66 90                	xchg   ax,ax
 10002af:	90                   	nop

010002b0 <error_isr0>:
 10002b0:	60                   	pusha  
 10002b1:	fc                   	cld    
 10002b2:	e8 99 00 01 00       	call   1010350 <isr_error_0>
 10002b7:	61                   	popa   
 10002b8:	cf                   	iret   

010002b9 <error_isr1>:
 10002b9:	60                   	pusha  
 10002ba:	fc                   	cld    
 10002bb:	e8 a0 00 01 00       	call   1010360 <isr_error_1>
 10002c0:	61                   	popa   
 10002c1:	cf                   	iret   

010002c2 <error_isr2>:
 10002c2:	60                   	pusha  
 10002c3:	fc                   	cld    
 10002c4:	e8 a7 00 01 00       	call   1010370 <isr_error_2>
 10002c9:	61                   	popa   
 10002ca:	cf                   	iret   

010002cb <error_isr3>:
 10002cb:	60                   	pusha  
 10002cc:	fc                   	cld    
 10002cd:	e8 ae 00 01 00       	call   1010380 <isr_error_3>
 10002d2:	61                   	popa   
 10002d3:	cf                   	iret   

010002d4 <error_isr4>:
 10002d4:	60                   	pusha  
 10002d5:	fc                   	cld    
 10002d6:	e8 b5 00 01 00       	call   1010390 <isr_error_4>
 10002db:	61                   	popa   
 10002dc:	cf                   	iret   

010002dd <error_isr5>:
 10002dd:	60                   	pusha  
 10002de:	fc                   	cld    
 10002df:	e8 bc 00 01 00       	call   10103a0 <isr_error_5>
 10002e4:	61                   	popa   
 10002e5:	cf                   	iret   

010002e6 <error_isr6>:
 10002e6:	60                   	pusha  
 10002e7:	fc                   	cld    
 10002e8:	e8 c3 00 01 00       	call   10103b0 <isr_error_6>
 10002ed:	61                   	popa   
 10002ee:	cf                   	iret   

010002ef <error_isr7>:
 10002ef:	60                   	pusha  
 10002f0:	fc                   	cld    
 10002f1:	e8 ea 00 01 00       	call   10103e0 <isr_error_7>
 10002f6:	61                   	popa   
 10002f7:	cf                   	iret   

010002f8 <error_isr8>:
 10002f8:	60                   	pusha  
 10002f9:	fc                   	cld    
 10002fa:	e8 f1 00 01 00       	call   10103f0 <isr_error_8>
 10002ff:	61                   	popa   
 1000300:	cf                   	iret   

01000301 <error_isr9>:
 1000301:	60                   	pusha  
 1000302:	fc                   	cld    
 1000303:	e8 f8 00 01 00       	call   1010400 <isr_error_9>
 1000308:	61                   	popa   
 1000309:	cf                   	iret   

0100030a <error_isr10>:
 100030a:	60                   	pusha  
 100030b:	fc                   	cld    
 100030c:	e8 ff 00 01 00       	call   1010410 <isr_error_10>
 1000311:	61                   	popa   
 1000312:	cf                   	iret   

01000313 <error_isr11>:
 1000313:	60                   	pusha  
 1000314:	fc                   	cld    
 1000315:	e8 06 01 01 00       	call   1010420 <isr_error_11>
 100031a:	61                   	popa   
 100031b:	cf                   	iret   

0100031c <error_isr12>:
 100031c:	60                   	pusha  
 100031d:	fc                   	cld    
 100031e:	e8 0d 01 01 00       	call   1010430 <isr_error_12>
 1000323:	61                   	popa   
 1000324:	cf                   	iret   

01000325 <error_isr13>:
 1000325:	60                   	pusha  
 1000326:	fc                   	cld    
 1000327:	e8 14 01 01 00       	call   1010440 <isr_error_13>
 100032c:	61                   	popa   
 100032d:	cf                   	iret   

0100032e <error_isr14>:
 100032e:	60                   	pusha  
 100032f:	fc                   	cld    
 1000330:	e8 3b 01 01 00       	call   1010470 <isr_error_14>
 1000335:	61                   	popa   
 1000336:	cf                   	iret   

01000337 <error_isr15>:
 1000337:	60                   	pusha  
 1000338:	fc                   	cld    
 1000339:	e8 02 00 01 00       	call   1010340 <isr_error_handler>
 100033e:	61                   	popa   
 100033f:	cf                   	iret   

01000340 <error_isr16>:
 1000340:	60                   	pusha  
 1000341:	fc                   	cld    
 1000342:	e8 39 01 01 00       	call   1010480 <isr_error_16>
 1000347:	61                   	popa   
 1000348:	cf                   	iret   

01000349 <error_isr17>:
 1000349:	60                   	pusha  
 100034a:	fc                   	cld    
 100034b:	e8 40 01 01 00       	call   1010490 <isr_error_17>
 1000350:	61                   	popa   
 1000351:	cf                   	iret   

01000352 <error_isr18>:
 1000352:	60                   	pusha  
 1000353:	fc                   	cld    
 1000354:	e8 47 01 01 00       	call   10104a0 <isr_error_18>
 1000359:	61                   	popa   
 100035a:	cf                   	iret   

0100035b <error_isr19>:
 100035b:	60                   	pusha  
 100035c:	fc                   	cld    
 100035d:	e8 4e 01 01 00       	call   10104b0 <isr_error_19>
 1000362:	61                   	popa   
 1000363:	cf                   	iret   

01000364 <error_isr20>:
 1000364:	60                   	pusha  
 1000365:	fc                   	cld    
 1000366:	e8 55 01 01 00       	call   10104c0 <isr_error_20>
 100036b:	61                   	popa   
 100036c:	cf                   	iret   

0100036d <error_isr21>:
 100036d:	60                   	pusha  
 100036e:	fc                   	cld    
 100036f:	e8 cc ff 00 00       	call   1010340 <isr_error_handler>
 1000374:	61                   	popa   
 1000375:	cf                   	iret   

01000376 <error_isr22>:
 1000376:	60                   	pusha  
 1000377:	fc                   	cld    
 1000378:	e8 c3 ff 00 00       	call   1010340 <isr_error_handler>
 100037d:	61                   	popa   
 100037e:	cf                   	iret   

0100037f <error_isr23>:
 100037f:	60                   	pusha  
 1000380:	fc                   	cld    
 1000381:	e8 ba ff 00 00       	call   1010340 <isr_error_handler>
 1000386:	61                   	popa   
 1000387:	cf                   	iret   

01000388 <error_isr24>:
 1000388:	60                   	pusha  
 1000389:	fc                   	cld    
 100038a:	e8 b1 ff 00 00       	call   1010340 <isr_error_handler>
 100038f:	61                   	popa   
 1000390:	cf                   	iret   

01000391 <error_isr25>:
 1000391:	60                   	pusha  
 1000392:	fc                   	cld    
 1000393:	e8 a8 ff 00 00       	call   1010340 <isr_error_handler>
 1000398:	61                   	popa   
 1000399:	cf                   	iret   

0100039a <error_isr26>:
 100039a:	60                   	pusha  
 100039b:	fc                   	cld    
 100039c:	e8 9f ff 00 00       	call   1010340 <isr_error_handler>
 10003a1:	61                   	popa   
 10003a2:	cf                   	iret   

010003a3 <error_isr27>:
 10003a3:	60                   	pusha  
 10003a4:	fc                   	cld    
 10003a5:	e8 96 ff 00 00       	call   1010340 <isr_error_handler>
 10003aa:	61                   	popa   
 10003ab:	cf                   	iret   

010003ac <error_isr28>:
 10003ac:	60                   	pusha  
 10003ad:	fc                   	cld    
 10003ae:	e8 8d ff 00 00       	call   1010340 <isr_error_handler>
 10003b3:	61                   	popa   
 10003b4:	cf                   	iret   

010003b5 <error_isr29>:
 10003b5:	60                   	pusha  
 10003b6:	fc                   	cld    
 10003b7:	e8 84 ff 00 00       	call   1010340 <isr_error_handler>
 10003bc:	61                   	popa   
 10003bd:	cf                   	iret   

010003be <error_isr30>:
 10003be:	60                   	pusha  
 10003bf:	fc                   	cld    
 10003c0:	e8 0b 01 01 00       	call   10104d0 <isr_error_30>
 10003c5:	61                   	popa   
 10003c6:	cf                   	iret   

010003c7 <error_isr31>:
 10003c7:	60                   	pusha  
 10003c8:	fc                   	cld    
 10003c9:	e8 72 ff 00 00       	call   1010340 <isr_error_handler>
 10003ce:	61                   	popa   
 10003cf:	cf                   	iret   

010003d0 <__getRegEAX>:
 10003d0:	c3                   	ret    

010003d1 <__getRegEBX>:
 10003d1:	89 d8                	mov    eax,ebx
 10003d3:	c3                   	ret    

010003d4 <__getRegECX>:
 10003d4:	89 c8                	mov    eax,ecx
 10003d6:	c3                   	ret    

010003d7 <__getRegEDX>:
 10003d7:	89 d0                	mov    eax,edx
 10003d9:	c3                   	ret    

010003da <__getRegEDI>:
 10003da:	89 f8                	mov    eax,edi
 10003dc:	c3                   	ret    

010003dd <__getRegESI>:
 10003dd:	89 f0                	mov    eax,esi
 10003df:	c3                   	ret    

010003e0 <__getRegEBP>:
 10003e0:	89 e8                	mov    eax,ebp
 10003e2:	c3                   	ret    

010003e3 <__getRegESP>:
 10003e3:	89 e0                	mov    eax,esp
 10003e5:	c3                   	ret    

010003e6 <__getRegEIP>:
 10003e6:	e8 00 00 00 00       	call   10003eb <__getRegEIP.get_eip>

010003eb <__getRegEIP.get_eip>:
 10003eb:	8b 04 24             	mov    eax,DWORD PTR [esp]
 10003ee:	c3                   	ret    
 10003ef:	c3                   	ret    

010003f0 <__setCR4>:
 10003f0:	55                   	push   ebp
 10003f1:	89 e5                	mov    ebp,esp
 10003f3:	8b 45 08             	mov    eax,DWORD PTR [ebp+0x8]
 10003f6:	0f 22 e0             	mov    cr4,eax
 10003f9:	5d                   	pop    ebp
 10003fa:	c3                   	ret    

010003fb <__getCR4>:
 10003fb:	0f 20 e0             	mov    eax,cr4
 10003fe:	c3                   	ret    

010003ff <__setCR3>:
 10003ff:	55                   	push   ebp
 1000400:	89 e5                	mov    ebp,esp
 1000402:	8b 45 08             	mov    eax,DWORD PTR [ebp+0x8]
 1000405:	0f 22 d8             	mov    cr3,eax
 1000408:	5d                   	pop    ebp
 1000409:	c3                   	ret    

0100040a <__getCR3>:
 100040a:	0f 20 d8             	mov    eax,cr3
 100040d:	c3                   	ret    

0100040e <__setCR0>:
 100040e:	55                   	push   ebp
 100040f:	89 e5                	mov    ebp,esp
 1000411:	8b 45 08             	mov    eax,DWORD PTR [ebp+0x8]
 1000414:	0f 22 c0             	mov    cr0,eax
 1000417:	5d                   	pop    ebp
 1000418:	c3                   	ret    

01000419 <__getCR0>:
 1000419:	0f 20 c0             	mov    eax,cr0
 100041c:	c3                   	ret    
 100041d:	66 90                	xchg   ax,ax
 100041f:	90                   	nop

01000420 <__setIOPL>:
 1000420:	55                   	push   ebp
 1000421:	89 e5                	mov    ebp,esp
 1000423:	53                   	push   ebx
 1000424:	8b 45 08             	mov    eax,DWORD PTR [ebp+0x8]
 1000427:	c1 e0 0c             	shl    eax,0xc
 100042a:	25 00 30 00 00       	and    eax,0x3000
 100042f:	9c                   	pushf  
 1000430:	5b                   	pop    ebx
 1000431:	09 c3                	or     ebx,eax
 1000433:	53                   	push   ebx
 1000434:	9d                   	popf   
 1000435:	5b                   	pop    ebx
 1000436:	5d                   	pop    ebp
 1000437:	c3                   	ret    
 1000438:	66 90                	xchg   ax,ax
 100043a:	66 90                	xchg   ax,ax
 100043c:	66 90                	xchg   ax,ax
 100043e:	66 90                	xchg   ax,ax

01000440 <__getStack>:
 1000440:	55                   	push   ebp
 1000441:	50                   	push   eax
 1000442:	53                   	push   ebx
 1000443:	51                   	push   ecx
 1000444:	52                   	push   edx
 1000445:	89 e5                	mov    ebp,esp
 1000447:	8b 45 18             	mov    eax,DWORD PTR [ebp+0x18]
 100044a:	8b 5d 1c             	mov    ebx,DWORD PTR [ebp+0x1c]
 100044d:	c1 e3 02             	shl    ebx,0x2
 1000450:	b9 00 00 00 00       	mov    ecx,0x0

01000455 <__getStack.while>:
 1000455:	39 cb                	cmp    ebx,ecx
 1000457:	74 0c                	je     1000465 <__getStack.done>
 1000459:	8b 54 0d 00          	mov    edx,DWORD PTR [ebp+ecx*1+0x0]
 100045d:	89 14 08             	mov    DWORD PTR [eax+ecx*1],edx
 1000460:	83 c1 04             	add    ecx,0x4
 1000463:	eb f0                	jmp    1000455 <__getStack.while>

01000465 <__getStack.done>:
 1000465:	5a                   	pop    edx
 1000466:	59                   	pop    ecx
 1000467:	5b                   	pop    ebx
 1000468:	58                   	pop    eax
 1000469:	5d                   	pop    ebp
 100046a:	c3                   	ret    
 100046b:	66 90                	xchg   ax,ax
 100046d:	66 90                	xchg   ax,ax
 100046f:	90                   	nop

01000470 <__getIOPL>:
 1000470:	9c                   	pushf  
 1000471:	58                   	pop    eax
 1000472:	50                   	push   eax
 1000473:	9d                   	popf   
 1000474:	25 00 30 00 00       	and    eax,0x3000
 1000479:	c1 e8 0c             	shr    eax,0xc
 100047c:	c3                   	ret    
 100047d:	66 90                	xchg   ax,ax
 100047f:	90                   	nop

01000480 <_ZN6paging18init_kernel_pagingEv>:
 1000480:	83 ec 0c             	sub    esp,0xc
 1000483:	b8 00 00 00 02       	mov    eax,0x2000000
 1000488:	90                   	nop
 1000489:	8d b4 26 00 00 00 00 	lea    esi,[esi+eiz*1+0x0]
 1000490:	c7 00 00 00 00 00    	mov    DWORD PTR [eax],0x0
 1000496:	83 c0 04             	add    eax,0x4
 1000499:	3d 00 10 00 02       	cmp    eax,0x2001000
 100049e:	75 f0                	jne    1000490 <_ZN6paging18init_kernel_pagingEv+0x10>
 10004a0:	c7 00 00 00 00 00    	mov    DWORD PTR [eax],0x0
 10004a6:	83 c0 04             	add    eax,0x4
 10004a9:	3d 00 10 40 02       	cmp    eax,0x2401000
 10004ae:	75 f0                	jne    10004a0 <_ZN6paging18init_kernel_pagingEv+0x20>
 10004b0:	83 ec 0c             	sub    esp,0xc
 10004b3:	c7 05 00 0c 00 02 83 	mov    DWORD PTR ds:0x2000c00,0x83
 10004ba:	00 00 00 
 10004bd:	68 00 00 00 02       	push   0x2000000
 10004c2:	e8 38 ff ff ff       	call   10003ff <__setCR3>
 10004c7:	e8 4d ff ff ff       	call   1000419 <__getCR0>
 10004cc:	0d 01 00 00 80       	or     eax,0x80000001
 10004d1:	89 04 24             	mov    DWORD PTR [esp],eax
 10004d4:	e8 35 ff ff ff       	call   100040e <__setCR0>
 10004d9:	e8 12 ff ff ff       	call   10003f0 <__setCR4>
 10004de:	83 c8 10             	or     eax,0x10
 10004e1:	89 04 24             	mov    DWORD PTR [esp],eax
 10004e4:	e8 07 ff ff ff       	call   10003f0 <__setCR4>
 10004e9:	83 c4 1c             	add    esp,0x1c
 10004ec:	c3                   	ret    
 10004ed:	66 90                	xchg   ax,ax
 10004ef:	90                   	nop

010004f0 <_Z7hexdumpSt6vectorISt6stringE>:
 10004f0:	8b 44 24 04          	mov    eax,DWORD PTR [esp+0x4]
 10004f4:	83 78 04 03          	cmp    DWORD PTR [eax+0x4],0x3
 10004f8:	74 16                	je     1000510 <_Z7hexdumpSt6vectorISt6stringE+0x20>
 10004fa:	c7 44 24 04 fc db 01 	mov    DWORD PTR [esp+0x4],0x101dbfc
 1000501:	01 
 1000502:	e9 69 da 00 00       	jmp    100df70 <_Z7kprintfPKc>
 1000507:	89 f6                	mov    esi,esi
 1000509:	8d bc 27 00 00 00 00 	lea    edi,[edi+eiz*1+0x0]
 1000510:	c7 44 24 04 12 dc 01 	mov    DWORD PTR [esp+0x4],0x101dc12
 1000517:	01 
 1000518:	e9 53 da 00 00       	jmp    100df70 <_Z7kprintfPKc>
 100051d:	8d 76 00             	lea    esi,[esi+0x0]

01000520 <printUserMode>:
 1000520:	55                   	push   ebp
 1000521:	57                   	push   edi
 1000522:	56                   	push   esi
 1000523:	53                   	push   ebx
 1000524:	31 db                	xor    ebx,ebx
 1000526:	81 ec d4 08 00 00    	sub    esp,0x8d4
 100052c:	c7 84 24 9c 00 00 00 	mov    DWORD PTR [esp+0x9c],0x101e150
 1000533:	50 e1 01 01 
 1000537:	c7 84 24 a0 00 00 00 	mov    DWORD PTR [esp+0xa0],0x0
 100053e:	00 00 00 00 
 1000542:	c7 84 24 a4 00 00 00 	mov    DWORD PTR [esp+0xa4],0x0
 1000549:	00 00 00 00 
 100054d:	c7 84 24 a8 00 00 00 	mov    DWORD PTR [esp+0xa8],0x0
 1000554:	00 00 00 00 
 1000558:	c7 84 24 ac 00 00 00 	mov    DWORD PTR [esp+0xac],0x0
 100055f:	00 00 00 00 
 1000563:	c7 84 24 b0 00 00 00 	mov    DWORD PTR [esp+0xb0],0x0
 100056a:	00 00 00 00 
 100056e:	c7 84 24 b4 00 00 00 	mov    DWORD PTR [esp+0xb4],0x0
 1000575:	00 00 00 00 
 1000579:	c7 84 24 b8 00 00 00 	mov    DWORD PTR [esp+0xb8],0x0
 1000580:	00 00 00 00 
 1000584:	c7 84 24 bc 00 00 00 	mov    DWORD PTR [esp+0xbc],0x0
 100058b:	00 00 00 00 
 100058f:	c7 84 24 c0 00 00 00 	mov    DWORD PTR [esp+0xc0],0x100
 1000596:	00 01 00 00 
 100059a:	c7 84 24 c4 00 00 00 	mov    DWORD PTR [esp+0xc4],0x0
 10005a1:	00 00 00 00 
 10005a5:	c7 84 24 c8 00 00 00 	mov    DWORD PTR [esp+0xc8],0x100
 10005ac:	00 01 00 00 
 10005b0:	c7 84 24 cc 00 00 00 	mov    DWORD PTR [esp+0xcc],0x0
 10005b7:	00 00 00 00 
 10005bb:	68 80 01 00 00       	push   0x180
 10005c0:	8d b4 24 c8 00 00 00 	lea    esi,[esp+0xc8]
 10005c7:	56                   	push   esi
 10005c8:	e8 73 34 01 00       	call   1013a40 <_ZNSt6vectorIcE7reserveEj>
 10005cd:	83 c4 10             	add    esp,0x10
 10005d0:	83 ec 08             	sub    esp,0x8
 10005d3:	8b 84 24 c4 00 00 00 	mov    eax,DWORD PTR [esp+0xc4]
 10005da:	01 d8                	add    eax,ebx
 10005dc:	83 c3 01             	add    ebx,0x1
 10005df:	50                   	push   eax
 10005e0:	6a 01                	push   0x1
 10005e2:	e8 49 32 00 00       	call   1003830 <_ZnwjPv>
 10005e7:	83 c4 10             	add    esp,0x10
 10005ea:	81 fb 00 01 00 00    	cmp    ebx,0x100
 10005f0:	c6 00 00             	mov    BYTE PTR [eax],0x0
 10005f3:	75 db                	jne    10005d0 <printUserMode+0xb0>
 10005f5:	8b 84 24 98 00 00 00 	mov    eax,DWORD PTR [esp+0x98]
 10005fc:	c7 84 24 9c 00 00 00 	mov    DWORD PTR [esp+0x9c],0x0
 1000603:	00 00 00 00 
 1000607:	c7 84 24 a0 00 00 00 	mov    DWORD PTR [esp+0xa0],0x0
 100060e:	00 00 00 00 
 1000612:	85 c0                	test   eax,eax
 1000614:	74 0c                	je     1000622 <printUserMode+0x102>
 1000616:	83 ec 0c             	sub    esp,0xc
 1000619:	50                   	push   eax
 100061a:	e8 e1 37 00 00       	call   1003e00 <_ZdaPv>
 100061f:	83 c4 10             	add    esp,0x10
 1000622:	8b 84 24 c0 00 00 00 	mov    eax,DWORD PTR [esp+0xc0]
 1000629:	c7 84 24 98 00 00 00 	mov    DWORD PTR [esp+0x98],0x0
 1000630:	00 00 00 00 
 1000634:	83 ec 08             	sub    esp,0x8
 1000637:	89 84 24 a4 00 00 00 	mov    DWORD PTR [esp+0xa4],eax
 100063e:	ff b4 24 cc 00 00 00 	push   DWORD PTR [esp+0xcc]
 1000645:	8d 84 24 a4 00 00 00 	lea    eax,[esp+0xa4]
 100064c:	50                   	push   eax
 100064d:	e8 ee 33 01 00       	call   1013a40 <_ZNSt6vectorIcE7reserveEj>
 1000652:	83 c4 0c             	add    esp,0xc
 1000655:	ff b4 24 a0 00 00 00 	push   DWORD PTR [esp+0xa0]
 100065c:	ff b4 24 c4 00 00 00 	push   DWORD PTR [esp+0xc4]
 1000663:	ff b4 24 a4 00 00 00 	push   DWORD PTR [esp+0xa4]
 100066a:	e8 01 4a 00 00       	call   1005070 <_Z6memcpyPvPKvj>
 100066f:	8b 84 24 cc 00 00 00 	mov    eax,DWORD PTR [esp+0xcc]
 1000676:	c7 84 24 d0 00 00 00 	mov    DWORD PTR [esp+0xd0],0x0
 100067d:	00 00 00 00 
 1000681:	c7 84 24 d4 00 00 00 	mov    DWORD PTR [esp+0xd4],0x0
 1000688:	00 00 00 00 
 100068c:	83 c4 10             	add    esp,0x10
 100068f:	85 c0                	test   eax,eax
 1000691:	74 0c                	je     100069f <printUserMode+0x17f>
 1000693:	83 ec 0c             	sub    esp,0xc
 1000696:	50                   	push   eax
 1000697:	e8 64 37 00 00       	call   1003e00 <_ZdaPv>
 100069c:	83 c4 10             	add    esp,0x10
 100069f:	8d 84 24 94 00 00 00 	lea    eax,[esp+0x94]
 10006a6:	c7 84 24 b8 00 00 00 	mov    DWORD PTR [esp+0xb8],0x100
 10006ad:	00 01 00 00 
 10006b1:	c7 84 24 94 00 00 00 	mov    DWORD PTR [esp+0x94],0x101e170
 10006b8:	70 e1 01 01 
 10006bc:	83 ec 0c             	sub    esp,0xc
 10006bf:	89 44 24 64          	mov    DWORD PTR [esp+0x64],eax
 10006c3:	89 44 24 68          	mov    DWORD PTR [esp+0x68],eax
 10006c7:	68 17 dc 01 01       	push   0x101dc17
 10006cc:	e8 3f 52 00 00       	call   1005910 <_Z6strlenPKc>
 10006d1:	83 c0 01             	add    eax,0x1
 10006d4:	89 04 24             	mov    DWORD PTR [esp],eax
 10006d7:	e8 54 34 00 00       	call   1003b30 <_Z6mallocj>
 10006dc:	89 44 24 20          	mov    DWORD PTR [esp+0x20],eax
 10006e0:	89 c7                	mov    edi,eax
 10006e2:	58                   	pop    eax
 10006e3:	5a                   	pop    edx
 10006e4:	68 17 dc 01 01       	push   0x101dc17
 10006e9:	57                   	push   edi
 10006ea:	e8 11 55 00 00       	call   1005c00 <_Z6strcpyPcPKc>
 10006ef:	c7 04 24 17 dc 01 01 	mov    DWORD PTR [esp],0x101dc17
 10006f6:	e8 15 52 00 00       	call   1005910 <_Z6strlenPKc>
 10006fb:	83 c4 10             	add    esp,0x10
 10006fe:	85 c0                	test   eax,eax
 1000700:	0f 84 8a 00 00 00    	je     1000790 <printUserMode+0x270>
 1000706:	01 f8                	add    eax,edi
 1000708:	89 44 24 0c          	mov    DWORD PTR [esp+0xc],eax
 100070c:	eb 0b                	jmp    1000719 <printUserMode+0x1f9>
 100070e:	66 90                	xchg   ax,ax
 1000710:	83 c7 01             	add    edi,0x1
 1000713:	39 7c 24 0c          	cmp    DWORD PTR [esp+0xc],edi
 1000717:	74 77                	je     1000790 <printUserMode+0x270>
 1000719:	8b 5c 24 58          	mov    ebx,DWORD PTR [esp+0x58]
 100071d:	0f be 17             	movsx  edx,BYTE PTR [edi]
 1000720:	8b 03                	mov    eax,DWORD PTR [ebx]
 1000722:	8b 00                	mov    eax,DWORD PTR [eax]
 1000724:	3d 40 13 01 01       	cmp    eax,0x1011340
 1000729:	0f 85 d1 02 00 00    	jne    1000a00 <printUserMode+0x4e0>
 100072f:	8b 43 10             	mov    eax,DWORD PTR [ebx+0x10]
 1000732:	8d 48 01             	lea    ecx,[eax+0x1]
 1000735:	89 4b 10             	mov    DWORD PTR [ebx+0x10],ecx
 1000738:	8b 4b 04             	mov    ecx,DWORD PTR [ebx+0x4]
 100073b:	88 14 01             	mov    BYTE PTR [ecx+eax*1],dl
 100073e:	8b 53 10             	mov    edx,DWORD PTR [ebx+0x10]
 1000741:	3b 53 08             	cmp    edx,DWORD PTR [ebx+0x8]
 1000744:	75 ca                	jne    1000710 <printUserMode+0x1f0>
 1000746:	8b 03                	mov    eax,DWORD PTR [ebx]
 1000748:	8b 48 0c             	mov    ecx,DWORD PTR [eax+0xc]
 100074b:	81 f9 70 12 01 01    	cmp    ecx,0x1011270
 1000751:	0f 85 90 16 00 00    	jne    1001de7 <printUserMode+0x18c7>
 1000757:	85 d2                	test   edx,edx
 1000759:	74 19                	je     1000774 <printUserMode+0x254>
 100075b:	31 ed                	xor    ebp,ebp
 100075d:	eb 03                	jmp    1000762 <printUserMode+0x242>
 100075f:	90                   	nop
 1000760:	8b 03                	mov    eax,DWORD PTR [ebx]
 1000762:	83 ec 0c             	sub    esp,0xc
 1000765:	83 c5 01             	add    ebp,0x1
 1000768:	53                   	push   ebx
 1000769:	ff 50 14             	call   DWORD PTR [eax+0x14]
 100076c:	83 c4 10             	add    esp,0x10
 100076f:	39 6b 08             	cmp    DWORD PTR [ebx+0x8],ebp
 1000772:	77 ec                	ja     1000760 <printUserMode+0x240>
 1000774:	83 c7 01             	add    edi,0x1
 1000777:	39 7c 24 0c          	cmp    DWORD PTR [esp+0xc],edi
 100077b:	c7 43 10 00 00 00 00 	mov    DWORD PTR [ebx+0x10],0x0
 1000782:	c7 43 14 00 00 00 00 	mov    DWORD PTR [ebx+0x14],0x0
 1000789:	75 8e                	jne    1000719 <printUserMode+0x1f9>
 100078b:	90                   	nop
 100078c:	8d 74 26 00          	lea    esi,[esi+eiz*1+0x0]
 1000790:	83 ec 0c             	sub    esp,0xc
 1000793:	ff 74 24 1c          	push   DWORD PTR [esp+0x1c]
 1000797:	e8 74 36 00 00       	call   1003e10 <_Z4freePv>
 100079c:	5f                   	pop    edi
 100079d:	8d 44 24 64          	lea    eax,[esp+0x64]
 10007a1:	50                   	push   eax
 10007a2:	e8 59 d0 00 00       	call   100d800 <_ZSt4endlRSt7ostream>
 10007a7:	c7 04 24 14 e0 01 01 	mov    DWORD PTR [esp],0x101e014
 10007ae:	e8 5d 51 00 00       	call   1005910 <_Z6strlenPKc>
 10007b3:	83 c0 01             	add    eax,0x1
 10007b6:	89 04 24             	mov    DWORD PTR [esp],eax
 10007b9:	e8 72 33 00 00       	call   1003b30 <_Z6mallocj>
 10007be:	89 44 24 20          	mov    DWORD PTR [esp+0x20],eax
 10007c2:	89 c7                	mov    edi,eax
 10007c4:	5d                   	pop    ebp
 10007c5:	58                   	pop    eax
 10007c6:	68 14 e0 01 01       	push   0x101e014
 10007cb:	57                   	push   edi
 10007cc:	e8 2f 54 00 00       	call   1005c00 <_Z6strcpyPcPKc>
 10007d1:	c7 04 24 14 e0 01 01 	mov    DWORD PTR [esp],0x101e014
 10007d8:	e8 33 51 00 00       	call   1005910 <_Z6strlenPKc>
 10007dd:	83 c4 10             	add    esp,0x10
 10007e0:	85 c0                	test   eax,eax
 10007e2:	0f 84 88 00 00 00    	je     1000870 <printUserMode+0x350>
 10007e8:	01 f8                	add    eax,edi
 10007ea:	89 44 24 0c          	mov    DWORD PTR [esp+0xc],eax
 10007ee:	eb 09                	jmp    10007f9 <printUserMode+0x2d9>
 10007f0:	83 c7 01             	add    edi,0x1
 10007f3:	39 7c 24 0c          	cmp    DWORD PTR [esp+0xc],edi
 10007f7:	74 77                	je     1000870 <printUserMode+0x350>
 10007f9:	8b 5c 24 58          	mov    ebx,DWORD PTR [esp+0x58]
 10007fd:	0f be 17             	movsx  edx,BYTE PTR [edi]
 1000800:	8b 03                	mov    eax,DWORD PTR [ebx]
 1000802:	8b 00                	mov    eax,DWORD PTR [eax]
 1000804:	3d 40 13 01 01       	cmp    eax,0x1011340
 1000809:	0f 85 01 02 00 00    	jne    1000a10 <printUserMode+0x4f0>
 100080f:	8b 43 10             	mov    eax,DWORD PTR [ebx+0x10]
 1000812:	8d 48 01             	lea    ecx,[eax+0x1]
 1000815:	89 4b 10             	mov    DWORD PTR [ebx+0x10],ecx
 1000818:	8b 4b 04             	mov    ecx,DWORD PTR [ebx+0x4]
 100081b:	88 14 01             	mov    BYTE PTR [ecx+eax*1],dl
 100081e:	8b 53 10             	mov    edx,DWORD PTR [ebx+0x10]
 1000821:	3b 53 08             	cmp    edx,DWORD PTR [ebx+0x8]
 1000824:	75 ca                	jne    10007f0 <printUserMode+0x2d0>
 1000826:	8b 03                	mov    eax,DWORD PTR [ebx]
 1000828:	8b 48 0c             	mov    ecx,DWORD PTR [eax+0xc]
 100082b:	81 f9 70 12 01 01    	cmp    ecx,0x1011270
 1000831:	0f 85 a2 15 00 00    	jne    1001dd9 <printUserMode+0x18b9>
 1000837:	85 d2                	test   edx,edx
 1000839:	74 19                	je     1000854 <printUserMode+0x334>
 100083b:	31 ed                	xor    ebp,ebp
 100083d:	eb 03                	jmp    1000842 <printUserMode+0x322>
 100083f:	90                   	nop
 1000840:	8b 03                	mov    eax,DWORD PTR [ebx]
 1000842:	83 ec 0c             	sub    esp,0xc
 1000845:	83 c5 01             	add    ebp,0x1
 1000848:	53                   	push   ebx
 1000849:	ff 50 14             	call   DWORD PTR [eax+0x14]
 100084c:	83 c4 10             	add    esp,0x10
 100084f:	39 6b 08             	cmp    DWORD PTR [ebx+0x8],ebp
 1000852:	77 ec                	ja     1000840 <printUserMode+0x320>
 1000854:	83 c7 01             	add    edi,0x1
 1000857:	39 7c 24 0c          	cmp    DWORD PTR [esp+0xc],edi
 100085b:	c7 43 10 00 00 00 00 	mov    DWORD PTR [ebx+0x10],0x0
 1000862:	c7 43 14 00 00 00 00 	mov    DWORD PTR [ebx+0x14],0x0
 1000869:	75 8e                	jne    10007f9 <printUserMode+0x2d9>
 100086b:	90                   	nop
 100086c:	8d 74 26 00          	lea    esi,[esi+eiz*1+0x0]
 1000870:	83 ec 0c             	sub    esp,0xc
 1000873:	ff 74 24 1c          	push   DWORD PTR [esp+0x1c]
 1000877:	e8 94 35 00 00       	call   1003e10 <_Z4freePv>
 100087c:	5b                   	pop    ebx
 100087d:	8d 44 24 64          	lea    eax,[esp+0x64]
 1000881:	50                   	push   eax
 1000882:	e8 79 cf 00 00       	call   100d800 <_ZSt4endlRSt7ostream>
 1000887:	c7 04 24 0c 00 00 00 	mov    DWORD PTR [esp],0xc
 100088e:	c7 44 24 70 00 00 00 	mov    DWORD PTR [esp+0x70],0x0
 1000895:	00 
 1000896:	c7 44 24 74 00 00 00 	mov    DWORD PTR [esp+0x74],0x0
 100089d:	00 
 100089e:	e8 9d 32 00 00       	call   1003b40 <_Znwj>
 10008a3:	89 c7                	mov    edi,eax
 10008a5:	c7 00 00 00 00 00    	mov    DWORD PTR [eax],0x0
 10008ab:	c7 40 04 00 01 00 00 	mov    DWORD PTR [eax+0x4],0x100
 10008b2:	c7 40 08 00 00 00 00 	mov    DWORD PTR [eax+0x8],0x0
 10008b9:	c7 04 24 00 0c 00 00 	mov    DWORD PTR [esp],0xc00
 10008c0:	e8 8b 32 00 00       	call   1003b50 <_Znaj>
 10008c5:	89 c3                	mov    ebx,eax
 10008c7:	8b 07                	mov    eax,DWORD PTR [edi]
 10008c9:	83 c4 10             	add    esp,0x10
 10008cc:	85 c0                	test   eax,eax
 10008ce:	74 2a                	je     10008fa <printUserMode+0x3da>
 10008d0:	8b 4f 04             	mov    ecx,DWORD PTR [edi+0x4]
 10008d3:	83 ec 04             	sub    esp,0x4
 10008d6:	8d 14 cd 00 00 00 00 	lea    edx,[ecx*8+0x0]
 10008dd:	52                   	push   edx
 10008de:	50                   	push   eax
 10008df:	53                   	push   ebx
 10008e0:	e8 8b 47 00 00       	call   1005070 <_Z6memcpyPvPKvj>
 10008e5:	8b 07                	mov    eax,DWORD PTR [edi]
 10008e7:	83 c4 10             	add    esp,0x10
 10008ea:	85 c0                	test   eax,eax
 10008ec:	74 0c                	je     10008fa <printUserMode+0x3da>
 10008ee:	83 ec 0c             	sub    esp,0xc
 10008f1:	50                   	push   eax
 10008f2:	e8 09 35 00 00       	call   1003e00 <_ZdaPv>
 10008f7:	83 c4 10             	add    esp,0x10
 10008fa:	89 1f                	mov    DWORD PTR [edi],ebx
 10008fc:	81 47 08 00 0c 00 00 	add    DWORD PTR [edi+0x8],0xc00
 1000903:	31 ed                	xor    ebp,ebp
 1000905:	eb 0b                	jmp    1000912 <printUserMode+0x3f2>
 1000907:	89 f6                	mov    esi,esi
 1000909:	8d bc 27 00 00 00 00 	lea    edi,[edi+eiz*1+0x0]
 1000910:	8b 1f                	mov    ebx,DWORD PTR [edi]
 1000912:	8d 04 2b             	lea    eax,[ebx+ebp*1]
 1000915:	83 ec 08             	sub    esp,0x8
 1000918:	83 c5 08             	add    ebp,0x8
 100091b:	50                   	push   eax
 100091c:	6a 08                	push   0x8
 100091e:	e8 0d 2f 00 00       	call   1003830 <_ZnwjPv>
 1000923:	83 c4 10             	add    esp,0x10
 1000926:	81 fd 00 08 00 00    	cmp    ebp,0x800
 100092c:	c7 40 04 00 00 00 00 	mov    DWORD PTR [eax+0x4],0x0
 1000933:	75 db                	jne    1000910 <printUserMode+0x3f0>
 1000935:	83 ec 0c             	sub    esp,0xc
 1000938:	6a 0c                	push   0xc
 100093a:	e8 01 32 00 00       	call   1003b40 <_Znwj>
 100093f:	8b 6c 24 70          	mov    ebp,DWORD PTR [esp+0x70]
 1000943:	83 c4 10             	add    esp,0x10
 1000946:	89 c3                	mov    ebx,eax
 1000948:	89 78 04             	mov    DWORD PTR [eax+0x4],edi
 100094b:	c7 00 01 00 00 00    	mov    DWORD PTR [eax],0x1
 1000951:	85 ed                	test   ebp,ebp
 1000953:	0f 84 5e 14 00 00    	je     1001db7 <printUserMode+0x1897>
 1000959:	8b 45 00             	mov    eax,DWORD PTR [ebp+0x0]
 100095c:	83 f8 01             	cmp    eax,0x1
 100095f:	0f 84 b3 04 00 00    	je     1000e18 <printUserMode+0x8f8>
 1000965:	83 e8 01             	sub    eax,0x1
 1000968:	89 45 00             	mov    DWORD PTR [ebp+0x0],eax
 100096b:	8b 7d 00             	mov    edi,DWORD PTR [ebp+0x0]
 100096e:	85 ff                	test   edi,edi
 1000970:	0f 84 a9 00 00 00    	je     1000a1f <printUserMode+0x4ff>
 1000976:	8b 03                	mov    eax,DWORD PTR [ebx]
 1000978:	89 5c 24 60          	mov    DWORD PTR [esp+0x60],ebx
 100097c:	83 c0 01             	add    eax,0x1
 100097f:	83 f8 01             	cmp    eax,0x1
 1000982:	89 03                	mov    DWORD PTR [ebx],eax
 1000984:	0f 85 b7 00 00 00    	jne    1000a41 <printUserMode+0x521>
 100098a:	8b 6b 04             	mov    ebp,DWORD PTR [ebx+0x4]
 100098d:	85 ed                	test   ebp,ebp
 100098f:	0f 84 2b 14 00 00    	je     1001dc0 <printUserMode+0x18a0>
 1000995:	8b 4d 04             	mov    ecx,DWORD PTR [ebp+0x4]
 1000998:	8b 45 00             	mov    eax,DWORD PTR [ebp+0x0]
 100099b:	85 c9                	test   ecx,ecx
 100099d:	0f 84 37 28 00 00    	je     10031da <printUserMode+0x2cba>
 10009a3:	31 c9                	xor    ecx,ecx
 10009a5:	89 5c 24 10          	mov    DWORD PTR [esp+0x10],ebx
 10009a9:	89 6c 24 0c          	mov    DWORD PTR [esp+0xc],ebp
 10009ad:	89 cf                	mov    edi,ecx
 10009af:	eb 16                	jmp    10009c7 <printUserMode+0x4a7>
 10009b1:	8b 44 24 0c          	mov    eax,DWORD PTR [esp+0xc]
 10009b5:	8b 00                	mov    eax,DWORD PTR [eax]
 10009b7:	8b 4c 24 0c          	mov    ecx,DWORD PTR [esp+0xc]
 10009bb:	83 c7 01             	add    edi,0x1
 10009be:	39 79 04             	cmp    DWORD PTR [ecx+0x4],edi
 10009c1:	0f 86 0d 28 00 00    	jbe    10031d4 <printUserMode+0x2cb4>
 10009c7:	8d 2c f8             	lea    ebp,[eax+edi*8]
 10009ca:	8b 5d 04             	mov    ebx,DWORD PTR [ebp+0x4]
 10009cd:	85 db                	test   ebx,ebx
 10009cf:	74 e6                	je     10009b7 <printUserMode+0x497>
 10009d1:	8b 0b                	mov    ecx,DWORD PTR [ebx]
 10009d3:	83 f9 01             	cmp    ecx,0x1
 10009d6:	0f 84 be 1e 00 00    	je     100289a <printUserMode+0x237a>
 10009dc:	83 e9 01             	sub    ecx,0x1
 10009df:	89 0b                	mov    DWORD PTR [ebx],ecx
 10009e1:	8b 2b                	mov    ebp,DWORD PTR [ebx]
 10009e3:	85 ed                	test   ebp,ebp
 10009e5:	75 ca                	jne    10009b1 <printUserMode+0x491>
 10009e7:	83 ec 08             	sub    esp,0x8
 10009ea:	6a 0c                	push   0xc
 10009ec:	53                   	push   ebx
 10009ed:	e8 ee 33 00 00       	call   1003de0 <_ZdlPvj>
 10009f2:	8b 44 24 1c          	mov    eax,DWORD PTR [esp+0x1c]
 10009f6:	83 c4 10             	add    esp,0x10
 10009f9:	8b 00                	mov    eax,DWORD PTR [eax]
 10009fb:	eb ba                	jmp    10009b7 <printUserMode+0x497>
 10009fd:	8d 76 00             	lea    esi,[esi+0x0]
 1000a00:	83 ec 08             	sub    esp,0x8
 1000a03:	52                   	push   edx
 1000a04:	53                   	push   ebx
 1000a05:	ff d0                	call   eax
 1000a07:	83 c4 10             	add    esp,0x10
 1000a0a:	e9 01 fd ff ff       	jmp    1000710 <printUserMode+0x1f0>
 1000a0f:	90                   	nop
 1000a10:	83 ec 08             	sub    esp,0x8
 1000a13:	52                   	push   edx
 1000a14:	53                   	push   ebx
 1000a15:	ff d0                	call   eax
 1000a17:	83 c4 10             	add    esp,0x10
 1000a1a:	e9 d1 fd ff ff       	jmp    10007f0 <printUserMode+0x2d0>
 1000a1f:	83 ec 08             	sub    esp,0x8
 1000a22:	6a 0c                	push   0xc
 1000a24:	55                   	push   ebp
 1000a25:	e8 b6 33 00 00       	call   1003de0 <_ZdlPvj>
 1000a2a:	8b 03                	mov    eax,DWORD PTR [ebx]
 1000a2c:	83 c4 10             	add    esp,0x10
 1000a2f:	89 5c 24 60          	mov    DWORD PTR [esp+0x60],ebx
 1000a33:	83 c0 01             	add    eax,0x1
 1000a36:	83 f8 01             	cmp    eax,0x1
 1000a39:	89 03                	mov    DWORD PTR [ebx],eax
 1000a3b:	0f 84 49 ff ff ff    	je     100098a <printUserMode+0x46a>
 1000a41:	83 e8 01             	sub    eax,0x1
 1000a44:	85 c0                	test   eax,eax
 1000a46:	89 03                	mov    DWORD PTR [ebx],eax
 1000a48:	0f 84 78 13 00 00    	je     1001dc6 <printUserMode+0x18a6>
 1000a4e:	8b 5c 24 64          	mov    ebx,DWORD PTR [esp+0x64]
 1000a52:	85 db                	test   ebx,ebx
 1000a54:	74 24                	je     1000a7a <printUserMode+0x55a>
 1000a56:	8b 03                	mov    eax,DWORD PTR [ebx]
 1000a58:	83 f8 01             	cmp    eax,0x1
 1000a5b:	0f 84 a8 14 00 00    	je     1001f09 <printUserMode+0x19e9>
 1000a61:	83 e8 01             	sub    eax,0x1
 1000a64:	89 03                	mov    DWORD PTR [ebx],eax
 1000a66:	8b 3b                	mov    edi,DWORD PTR [ebx]
 1000a68:	85 ff                	test   edi,edi
 1000a6a:	75 0e                	jne    1000a7a <printUserMode+0x55a>
 1000a6c:	83 ec 08             	sub    esp,0x8
 1000a6f:	6a 0c                	push   0xc
 1000a71:	53                   	push   ebx
 1000a72:	e8 69 33 00 00       	call   1003de0 <_ZdlPvj>
 1000a77:	83 c4 10             	add    esp,0x10
 1000a7a:	8b 44 24 60          	mov    eax,DWORD PTR [esp+0x60]
 1000a7e:	85 c0                	test   eax,eax
 1000a80:	89 44 24 64          	mov    DWORD PTR [esp+0x64],eax
 1000a84:	74 03                	je     1000a89 <printUserMode+0x569>
 1000a86:	83 00 01             	add    DWORD PTR [eax],0x1
 1000a89:	83 ec 0c             	sub    esp,0xc
 1000a8c:	8d 44 24 6c          	lea    eax,[esp+0x6c]
 1000a90:	50                   	push   eax
 1000a91:	e8 5a 78 00 00       	call   10082f0 <_ZN8keyboard13init2KeyStateERNS_8KeyStateE>
 1000a96:	8d 84 24 d0 00 00 00 	lea    eax,[esp+0xd0]
 1000a9d:	8d 94 24 d0 04 00 00 	lea    edx,[esp+0x4d0]
 1000aa4:	83 c4 10             	add    esp,0x10
 1000aa7:	89 f6                	mov    esi,esi
 1000aa9:	8d bc 27 00 00 00 00 	lea    edi,[edi+eiz*1+0x0]
 1000ab0:	c7 00 ff ff ff ff    	mov    DWORD PTR [eax],0xffffffff
 1000ab6:	c7 80 00 04 00 00 ff 	mov    DWORD PTR [eax+0x400],0xffffffff
 1000abd:	ff ff ff 
 1000ac0:	83 c0 04             	add    eax,0x4
 1000ac3:	39 c2                	cmp    edx,eax
 1000ac5:	75 e9                	jne    1000ab0 <printUserMode+0x590>
 1000ac7:	b8 41 00 00 00       	mov    eax,0x41
 1000acc:	8d 74 26 00          	lea    esi,[esi+eiz*1+0x0]
 1000ad0:	89 84 86 84 00 00 00 	mov    DWORD PTR [esi+eax*4+0x84],eax
 1000ad7:	89 84 86 84 04 00 00 	mov    DWORD PTR [esi+eax*4+0x484],eax
 1000ade:	83 c0 01             	add    eax,0x1
 1000ae1:	83 f8 5b             	cmp    eax,0x5b
 1000ae4:	75 ea                	jne    1000ad0 <printUserMode+0x5b0>
 1000ae6:	c7 84 24 84 01 00 00 	mov    DWORD PTR [esp+0x184],0x21
 1000aed:	21 00 00 00 
 1000af1:	c7 84 24 88 01 00 00 	mov    DWORD PTR [esp+0x188],0x40
 1000af8:	40 00 00 00 
 1000afc:	83 ec 0c             	sub    esp,0xc
 1000aff:	c7 84 24 98 01 00 00 	mov    DWORD PTR [esp+0x198],0x23
 1000b06:	23 00 00 00 
 1000b0a:	c7 84 24 9c 01 00 00 	mov    DWORD PTR [esp+0x19c],0x24
 1000b11:	24 00 00 00 
 1000b15:	c7 84 24 a0 01 00 00 	mov    DWORD PTR [esp+0x1a0],0x25
 1000b1c:	25 00 00 00 
 1000b20:	c7 84 24 a4 01 00 00 	mov    DWORD PTR [esp+0x1a4],0x5e
 1000b27:	5e 00 00 00 
 1000b2b:	c7 84 24 a8 01 00 00 	mov    DWORD PTR [esp+0x1a8],0x26
 1000b32:	26 00 00 00 
 1000b36:	c7 84 24 ac 01 00 00 	mov    DWORD PTR [esp+0x1ac],0x2a
 1000b3d:	2a 00 00 00 
 1000b41:	c7 84 24 b0 01 00 00 	mov    DWORD PTR [esp+0x1b0],0x28
 1000b48:	28 00 00 00 
 1000b4c:	c7 84 24 8c 01 00 00 	mov    DWORD PTR [esp+0x18c],0x29
 1000b53:	29 00 00 00 
 1000b57:	c7 84 24 80 01 00 00 	mov    DWORD PTR [esp+0x180],0x5f
 1000b5e:	5f 00 00 00 
 1000b62:	c7 84 24 c0 01 00 00 	mov    DWORD PTR [esp+0x1c0],0x2b
 1000b69:	2b 00 00 00 
 1000b6d:	c7 84 24 38 02 00 00 	mov    DWORD PTR [esp+0x238],0x7b
 1000b74:	7b 00 00 00 
 1000b78:	c7 84 24 40 02 00 00 	mov    DWORD PTR [esp+0x240],0x7d
 1000b7f:	7d 00 00 00 
 1000b83:	c7 84 24 3c 02 00 00 	mov    DWORD PTR [esp+0x23c],0x7c
 1000b8a:	7c 00 00 00 
 1000b8e:	c7 84 24 b8 01 00 00 	mov    DWORD PTR [esp+0x1b8],0x3a
 1000b95:	3a 00 00 00 
 1000b99:	c7 84 24 68 01 00 00 	mov    DWORD PTR [esp+0x168],0x22
 1000ba0:	22 00 00 00 
 1000ba4:	c7 84 24 7c 01 00 00 	mov    DWORD PTR [esp+0x17c],0x3c
 1000bab:	3c 00 00 00 
 1000baf:	c7 84 24 84 01 00 00 	mov    DWORD PTR [esp+0x184],0x3e
 1000bb6:	3e 00 00 00 
 1000bba:	c7 84 24 88 01 00 00 	mov    DWORD PTR [esp+0x188],0x3f
 1000bc1:	3f 00 00 00 
 1000bc5:	c7 84 24 4c 02 00 00 	mov    DWORD PTR [esp+0x24c],0x7e
 1000bcc:	7e 00 00 00 
 1000bd0:	c7 44 24 7c 00 00 00 	mov    DWORD PTR [esp+0x7c],0x0
 1000bd7:	00 
 1000bd8:	c7 84 24 80 00 00 00 	mov    DWORD PTR [esp+0x80],0x0
 1000bdf:	00 00 00 00 
 1000be3:	c7 84 24 84 00 00 00 	mov    DWORD PTR [esp+0x84],0x0
 1000bea:	00 00 00 00 
 1000bee:	68 2d dc 01 01       	push   0x101dc2d
 1000bf3:	e8 18 4d 00 00       	call   1005910 <_Z6strlenPKc>
 1000bf8:	83 c0 01             	add    eax,0x1
 1000bfb:	89 04 24             	mov    DWORD PTR [esp],eax
 1000bfe:	e8 2d 2f 00 00       	call   1003b30 <_Z6mallocj>
 1000c03:	89 44 24 1c          	mov    DWORD PTR [esp+0x1c],eax
 1000c07:	89 c7                	mov    edi,eax
 1000c09:	59                   	pop    ecx
 1000c0a:	5b                   	pop    ebx
 1000c0b:	68 2d dc 01 01       	push   0x101dc2d
 1000c10:	50                   	push   eax
 1000c11:	e8 ea 4f 00 00       	call   1005c00 <_Z6strcpyPcPKc>
 1000c16:	c7 04 24 2d dc 01 01 	mov    DWORD PTR [esp],0x101dc2d
 1000c1d:	e8 ee 4c 00 00       	call   1005910 <_Z6strlenPKc>
 1000c22:	83 c4 10             	add    esp,0x10
 1000c25:	85 c0                	test   eax,eax
 1000c27:	0f 84 8b 00 00 00    	je     1000cb8 <printUserMode+0x798>
 1000c2d:	89 fe                	mov    esi,edi
 1000c2f:	8d 3c 38             	lea    edi,[eax+edi*1]
 1000c32:	eb 0b                	jmp    1000c3f <printUserMode+0x71f>
 1000c34:	8d 74 26 00          	lea    esi,[esi+eiz*1+0x0]
 1000c38:	83 c6 01             	add    esi,0x1
 1000c3b:	39 f7                	cmp    edi,esi
 1000c3d:	74 79                	je     1000cb8 <printUserMode+0x798>
 1000c3f:	8b 5c 24 58          	mov    ebx,DWORD PTR [esp+0x58]
 1000c43:	0f be 16             	movsx  edx,BYTE PTR [esi]
 1000c46:	8b 03                	mov    eax,DWORD PTR [ebx]
 1000c48:	8b 00                	mov    eax,DWORD PTR [eax]
 1000c4a:	3d 40 13 01 01       	cmp    eax,0x1011340
 1000c4f:	0f 85 3b 02 00 00    	jne    1000e90 <printUserMode+0x970>
 1000c55:	8b 43 10             	mov    eax,DWORD PTR [ebx+0x10]
 1000c58:	8d 48 01             	lea    ecx,[eax+0x1]
 1000c5b:	89 4b 10             	mov    DWORD PTR [ebx+0x10],ecx
 1000c5e:	8b 4b 04             	mov    ecx,DWORD PTR [ebx+0x4]
 1000c61:	88 14 01             	mov    BYTE PTR [ecx+eax*1],dl
 1000c64:	8b 53 10             	mov    edx,DWORD PTR [ebx+0x10]
 1000c67:	3b 53 08             	cmp    edx,DWORD PTR [ebx+0x8]
 1000c6a:	75 cc                	jne    1000c38 <printUserMode+0x718>
 1000c6c:	8b 03                	mov    eax,DWORD PTR [ebx]
 1000c6e:	8b 48 0c             	mov    ecx,DWORD PTR [eax+0xc]
 1000c71:	81 f9 70 12 01 01    	cmp    ecx,0x1011270
 1000c77:	0f 85 78 11 00 00    	jne    1001df5 <printUserMode+0x18d5>
 1000c7d:	85 d2                	test   edx,edx
 1000c7f:	74 1b                	je     1000c9c <printUserMode+0x77c>
 1000c81:	31 ed                	xor    ebp,ebp
 1000c83:	eb 05                	jmp    1000c8a <printUserMode+0x76a>
 1000c85:	8d 76 00             	lea    esi,[esi+0x0]
 1000c88:	8b 03                	mov    eax,DWORD PTR [ebx]
 1000c8a:	83 ec 0c             	sub    esp,0xc
 1000c8d:	83 c5 01             	add    ebp,0x1
 1000c90:	53                   	push   ebx
 1000c91:	ff 50 14             	call   DWORD PTR [eax+0x14]
 1000c94:	83 c4 10             	add    esp,0x10
 1000c97:	39 6b 08             	cmp    DWORD PTR [ebx+0x8],ebp
 1000c9a:	77 ec                	ja     1000c88 <printUserMode+0x768>
 1000c9c:	83 c6 01             	add    esi,0x1
 1000c9f:	c7 43 10 00 00 00 00 	mov    DWORD PTR [ebx+0x10],0x0
 1000ca6:	c7 43 14 00 00 00 00 	mov    DWORD PTR [ebx+0x14],0x0
 1000cad:	39 f7                	cmp    edi,esi
 1000caf:	75 8e                	jne    1000c3f <printUserMode+0x71f>
 1000cb1:	8d b4 26 00 00 00 00 	lea    esi,[esi+eiz*1+0x0]
 1000cb8:	83 ec 0c             	sub    esp,0xc
 1000cbb:	ff 74 24 18          	push   DWORD PTR [esp+0x18]
 1000cbf:	e8 4c 31 00 00       	call   1003e10 <_Z4freePv>
 1000cc4:	8b 5c 24 68          	mov    ebx,DWORD PTR [esp+0x68]
 1000cc8:	83 c4 10             	add    esp,0x10
 1000ccb:	8b 03                	mov    eax,DWORD PTR [ebx]
 1000ccd:	8b 50 0c             	mov    edx,DWORD PTR [eax+0xc]
 1000cd0:	81 fa 70 12 01 01    	cmp    edx,0x1011270
 1000cd6:	0f 85 ed 15 00 00    	jne    10022c9 <printUserMode+0x1da9>
 1000cdc:	8b 53 08             	mov    edx,DWORD PTR [ebx+0x8]
 1000cdf:	85 d2                	test   edx,edx
 1000ce1:	74 21                	je     1000d04 <printUserMode+0x7e4>
 1000ce3:	31 f6                	xor    esi,esi
 1000ce5:	eb 0b                	jmp    1000cf2 <printUserMode+0x7d2>
 1000ce7:	89 f6                	mov    esi,esi
 1000ce9:	8d bc 27 00 00 00 00 	lea    edi,[edi+eiz*1+0x0]
 1000cf0:	8b 03                	mov    eax,DWORD PTR [ebx]
 1000cf2:	83 ec 0c             	sub    esp,0xc
 1000cf5:	83 c6 01             	add    esi,0x1
 1000cf8:	53                   	push   ebx
 1000cf9:	ff 50 14             	call   DWORD PTR [eax+0x14]
 1000cfc:	83 c4 10             	add    esp,0x10
 1000cff:	39 73 08             	cmp    DWORD PTR [ebx+0x8],esi
 1000d02:	77 ec                	ja     1000cf0 <printUserMode+0x7d0>
 1000d04:	c7 43 10 00 00 00 00 	mov    DWORD PTR [ebx+0x10],0x0
 1000d0b:	c7 43 14 00 00 00 00 	mov    DWORD PTR [ebx+0x14],0x0
 1000d12:	c6 44 24 14 00       	mov    BYTE PTR [esp+0x14],0x0
 1000d17:	c6 44 24 18 00       	mov    BYTE PTR [esp+0x18],0x0
 1000d1c:	8d 74 26 00          	lea    esi,[esi+eiz*1+0x0]
 1000d20:	e8 2b 61 00 00       	call   1006e50 <_ZN8keyboard9hasNewKeyEv>
 1000d25:	84 c0                	test   al,al
 1000d27:	74 f7                	je     1000d20 <printUserMode+0x800>
 1000d29:	88 44 24 0c          	mov    BYTE PTR [esp+0xc],al
 1000d2d:	e9 be 00 00 00       	jmp    1000df0 <printUserMode+0x8d0>
 1000d32:	8d b6 00 00 00 00    	lea    esi,[esi+0x0]
 1000d38:	8b 77 04             	mov    esi,DWORD PTR [edi+0x4]
 1000d3b:	8b 16                	mov    edx,DWORD PTR [esi]
 1000d3d:	8d 04 c2             	lea    eax,[edx+eax*8]
 1000d40:	8b 48 04             	mov    ecx,DWORD PTR [eax+0x4]
 1000d43:	8b 28                	mov    ebp,DWORD PTR [eax]
 1000d45:	85 c9                	test   ecx,ecx
 1000d47:	74 0e                	je     1000d57 <printUserMode+0x837>
 1000d49:	8b 41 04             	mov    eax,DWORD PTR [ecx+0x4]
 1000d4c:	83 01 01             	add    DWORD PTR [ecx],0x1
 1000d4f:	85 c0                	test   eax,eax
 1000d51:	0f 85 19 04 00 00    	jne    1001170 <printUserMode+0xc50>
 1000d57:	8b 07                	mov    eax,DWORD PTR [edi]
 1000d59:	83 f8 01             	cmp    eax,0x1
 1000d5c:	0f 84 5a 0c 00 00    	je     10019bc <printUserMode+0x149c>
 1000d62:	83 e8 01             	sub    eax,0x1
 1000d65:	89 07                	mov    DWORD PTR [edi],eax
 1000d67:	8b 37                	mov    esi,DWORD PTR [edi]
 1000d69:	85 f6                	test   esi,esi
 1000d6b:	75 16                	jne    1000d83 <printUserMode+0x863>
 1000d6d:	89 4c 24 10          	mov    DWORD PTR [esp+0x10],ecx
 1000d71:	83 ec 08             	sub    esp,0x8
 1000d74:	6a 0c                	push   0xc
 1000d76:	57                   	push   edi
 1000d77:	e8 64 30 00 00       	call   1003de0 <_ZdlPvj>
 1000d7c:	83 c4 10             	add    esp,0x10
 1000d7f:	8b 4c 24 10          	mov    ecx,DWORD PTR [esp+0x10]
 1000d83:	8b 44 24 60          	mov    eax,DWORD PTR [esp+0x60]
 1000d87:	85 c0                	test   eax,eax
 1000d89:	89 44 24 64          	mov    DWORD PTR [esp+0x64],eax
 1000d8d:	74 03                	je     1000d92 <printUserMode+0x872>
 1000d8f:	83 00 01             	add    DWORD PTR [eax],0x1
 1000d92:	85 c9                	test   ecx,ecx
 1000d94:	74 18                	je     1000dae <printUserMode+0x88e>
 1000d96:	8b 01                	mov    eax,DWORD PTR [ecx]
 1000d98:	83 f8 01             	cmp    eax,0x1
 1000d9b:	0f 84 1f 03 00 00    	je     10010c0 <printUserMode+0xba0>
 1000da1:	83 e8 01             	sub    eax,0x1
 1000da4:	85 c0                	test   eax,eax
 1000da6:	89 01                	mov    DWORD PTR [ecx],eax
 1000da8:	0f 84 f6 02 00 00    	je     10010a4 <printUserMode+0xb84>
 1000dae:	85 ed                	test   ebp,ebp
 1000db0:	74 39                	je     1000deb <printUserMode+0x8cb>
 1000db2:	89 e8                	mov    eax,ebp
 1000db4:	3c 08                	cmp    al,0x8
 1000db6:	0f 85 e4 00 00 00    	jne    1000ea0 <printUserMode+0x980>
 1000dbc:	f7 c5 00 02 00 00    	test   ebp,0x200
 1000dc2:	0f 84 d8 00 00 00    	je     1000ea0 <printUserMode+0x980>
 1000dc8:	8b 44 24 78          	mov    eax,DWORD PTR [esp+0x78]
 1000dcc:	85 c0                	test   eax,eax
 1000dce:	0f 85 31 14 00 00    	jne    1002205 <printUserMode+0x1ce5>
 1000dd4:	0f b6 4c 24 0c       	movzx  ecx,BYTE PTR [esp+0xc]
 1000dd9:	81 fd 0d 03 00 00    	cmp    ebp,0x30d
 1000ddf:	b8 00 00 00 00       	mov    eax,0x0
 1000de4:	0f 44 c8             	cmove  ecx,eax
 1000de7:	88 4c 24 0c          	mov    BYTE PTR [esp+0xc],cl
 1000deb:	e8 a0 60 00 00       	call   1006e90 <_ZN8keyboard6popKeyEv>
 1000df0:	e8 8b 60 00 00       	call   1006e80 <_ZN8keyboard8keyCountEv>
 1000df5:	85 c0                	test   eax,eax
 1000df7:	0f 84 b3 03 00 00    	je     10011b0 <printUserMode+0xc90>
 1000dfd:	e8 6e 60 00 00       	call   1006e70 <_ZN8keyboard6getKeyEv>
 1000e02:	8b 7c 24 64          	mov    edi,DWORD PTR [esp+0x64]
 1000e06:	0f b6 c0             	movzx  eax,al
 1000e09:	85 ff                	test   edi,edi
 1000e0b:	0f 85 27 ff ff ff    	jne    1000d38 <printUserMode+0x818>
 1000e11:	a1 00 00 00 00       	mov    eax,ds:0x0
 1000e16:	0f 0b                	ud2    
 1000e18:	8b 4d 04             	mov    ecx,DWORD PTR [ebp+0x4]
 1000e1b:	85 c9                	test   ecx,ecx
 1000e1d:	89 4c 24 0c          	mov    DWORD PTR [esp+0xc],ecx
 1000e21:	0f 84 3e fb ff ff    	je     1000965 <printUserMode+0x445>
 1000e27:	8b 01                	mov    eax,DWORD PTR [ecx]
 1000e29:	8b 49 04             	mov    ecx,DWORD PTR [ecx+0x4]
 1000e2c:	85 c9                	test   ecx,ecx
 1000e2e:	0f 84 0e 23 00 00    	je     1003142 <printUserMode+0x2c22>
 1000e34:	31 c9                	xor    ecx,ecx
 1000e36:	89 5c 24 10          	mov    DWORD PTR [esp+0x10],ebx
 1000e3a:	89 6c 24 14          	mov    DWORD PTR [esp+0x14],ebp
 1000e3e:	89 cf                	mov    edi,ecx
 1000e40:	eb 16                	jmp    1000e58 <printUserMode+0x938>
 1000e42:	8b 44 24 0c          	mov    eax,DWORD PTR [esp+0xc]
 1000e46:	8b 00                	mov    eax,DWORD PTR [eax]
 1000e48:	8b 4c 24 0c          	mov    ecx,DWORD PTR [esp+0xc]
 1000e4c:	83 c7 01             	add    edi,0x1
 1000e4f:	39 79 04             	cmp    DWORD PTR [ecx+0x4],edi
 1000e52:	0f 86 e2 22 00 00    	jbe    100313a <printUserMode+0x2c1a>
 1000e58:	8d 2c f8             	lea    ebp,[eax+edi*8]
 1000e5b:	8b 5d 04             	mov    ebx,DWORD PTR [ebp+0x4]
 1000e5e:	85 db                	test   ebx,ebx
 1000e60:	74 e6                	je     1000e48 <printUserMode+0x928>
 1000e62:	8b 13                	mov    edx,DWORD PTR [ebx]
 1000e64:	83 fa 01             	cmp    edx,0x1
 1000e67:	0f 84 7a 1c 00 00    	je     1002ae7 <printUserMode+0x25c7>
 1000e6d:	83 ea 01             	sub    edx,0x1
 1000e70:	89 13                	mov    DWORD PTR [ebx],edx
 1000e72:	8b 2b                	mov    ebp,DWORD PTR [ebx]
 1000e74:	85 ed                	test   ebp,ebp
 1000e76:	75 ca                	jne    1000e42 <printUserMode+0x922>
 1000e78:	83 ec 08             	sub    esp,0x8
 1000e7b:	6a 0c                	push   0xc
 1000e7d:	53                   	push   ebx
 1000e7e:	e8 5d 2f 00 00       	call   1003de0 <_ZdlPvj>
 1000e83:	8b 44 24 1c          	mov    eax,DWORD PTR [esp+0x1c]
 1000e87:	83 c4 10             	add    esp,0x10
 1000e8a:	8b 00                	mov    eax,DWORD PTR [eax]
 1000e8c:	eb ba                	jmp    1000e48 <printUserMode+0x928>
 1000e8e:	66 90                	xchg   ax,ax
 1000e90:	83 ec 08             	sub    esp,0x8
 1000e93:	52                   	push   edx
 1000e94:	53                   	push   ebx
 1000e95:	ff d0                	call   eax
 1000e97:	83 c4 10             	add    esp,0x10
 1000e9a:	e9 99 fd ff ff       	jmp    1000c38 <printUserMode+0x718>
 1000e9f:	90                   	nop
 1000ea0:	81 fd 11 03 00 00    	cmp    ebp,0x311
 1000ea6:	0f 84 2f 09 00 00    	je     10017db <printUserMode+0x12bb>
 1000eac:	81 fd 11 05 00 00    	cmp    ebp,0x511
 1000eb2:	0f 84 2d 09 00 00    	je     10017e5 <printUserMode+0x12c5>
 1000eb8:	81 fd 13 03 00 00    	cmp    ebp,0x313
 1000ebe:	0f 85 7e 28 00 00    	jne    1003742 <printUserMode+0x3222>
 1000ec4:	c6 44 24 1f 01       	mov    BYTE PTR [esp+0x1f],0x1
 1000ec9:	f7 c5 00 01 00 00    	test   ebp,0x100
 1000ecf:	75 37                	jne    1000f08 <printUserMode+0x9e8>
 1000ed1:	80 7c 24 1e 00       	cmp    BYTE PTR [esp+0x1e],0x0
 1000ed6:	0f 85 13 08 00 00    	jne    10016ef <printUserMode+0x11cf>
 1000edc:	80 7c 24 1f 00       	cmp    BYTE PTR [esp+0x1f],0x0
 1000ee1:	0f 85 08 08 00 00    	jne    10016ef <printUserMode+0x11cf>
 1000ee7:	80 7c 24 18 00       	cmp    BYTE PTR [esp+0x18],0x0
 1000eec:	89 eb                	mov    ebx,ebp
 1000eee:	0f 85 e3 13 00 00    	jne    10022d7 <printUserMode+0x1db7>
 1000ef4:	8d 74 26 00          	lea    esi,[esi+eiz*1+0x0]
 1000ef8:	84 db                	test   bl,bl
 1000efa:	74 0c                	je     1000f08 <printUserMode+0x9e8>
 1000efc:	f7 c5 00 02 00 00    	test   ebp,0x200
 1000f02:	0f 85 75 0d 00 00    	jne    1001c7d <printUserMode+0x175d>
 1000f08:	89 e8                	mov    eax,ebp
 1000f0a:	3c 0a                	cmp    al,0xa
 1000f0c:	0f 85 c2 fe ff ff    	jne    1000dd4 <printUserMode+0x8b4>
 1000f12:	89 e8                	mov    eax,ebp
 1000f14:	25 00 03 00 00       	and    eax,0x300
 1000f19:	3d 00 02 00 00       	cmp    eax,0x200
 1000f1e:	0f 85 b0 fe ff ff    	jne    1000dd4 <printUserMode+0x8b4>
 1000f24:	8b 44 24 70          	mov    eax,DWORD PTR [esp+0x70]
 1000f28:	85 c0                	test   eax,eax
 1000f2a:	89 84 24 88 00 00 00 	mov    DWORD PTR [esp+0x88],eax
 1000f31:	0f 84 1e 26 00 00    	je     1003555 <printUserMode+0x3035>
 1000f37:	8b 10                	mov    edx,DWORD PTR [eax]
 1000f39:	89 44 24 68          	mov    DWORD PTR [esp+0x68],eax
 1000f3d:	83 c2 02             	add    edx,0x2
 1000f40:	89 10                	mov    DWORD PTR [eax],edx
 1000f42:	83 ec 0c             	sub    esp,0xc
 1000f45:	8d b4 24 94 00 00 00 	lea    esi,[esp+0x94]
 1000f4c:	56                   	push   esi
 1000f4d:	e8 ae 0a 01 00       	call   1011a00 <_ZNSt10shared_ptrISt11__dequeNodeIjESt15default_deleterIS1_EE3decEv>
 1000f52:	31 d2                	xor    edx,edx
 1000f54:	c7 84 24 8c 00 00 00 	mov    DWORD PTR [esp+0x8c],0x0
 1000f5b:	00 00 00 00 
 1000f5f:	8b 44 24 78          	mov    eax,DWORD PTR [esp+0x78]
 1000f63:	83 c4 10             	add    esp,0x10
 1000f66:	85 d2                	test   edx,edx
 1000f68:	89 6c 24 10          	mov    DWORD PTR [esp+0x10],ebp
 1000f6c:	0f 84 1d 01 00 00    	je     100108f <printUserMode+0xb6f>
 1000f72:	85 c0                	test   eax,eax
 1000f74:	8b 52 04             	mov    edx,DWORD PTR [edx+0x4]
 1000f77:	0f 84 db 27 00 00    	je     1003758 <printUserMode+0x3238>
 1000f7d:	8b 40 04             	mov    eax,DWORD PTR [eax+0x4]
 1000f80:	39 d0                	cmp    eax,edx
 1000f82:	0f 84 a1 1d 00 00    	je     1002d29 <printUserMode+0x2809>
 1000f88:	8b 18                	mov    ebx,DWORD PTR [eax]
 1000f8a:	8b 84 24 ac 00 00 00 	mov    eax,DWORD PTR [esp+0xac]
 1000f91:	85 c0                	test   eax,eax
 1000f93:	74 0b                	je     1000fa0 <printUserMode+0xa80>
 1000f95:	8b 48 04             	mov    ecx,DWORD PTR [eax+0x4]
 1000f98:	85 c9                	test   ecx,ecx
 1000f9a:	0f 85 79 16 00 00    	jne    1002619 <printUserMode+0x20f9>
 1000fa0:	83 ec 0c             	sub    esp,0xc
 1000fa3:	6a 0c                	push   0xc
 1000fa5:	e8 96 2b 00 00       	call   1003b40 <_Znwj>
 1000faa:	89 c7                	mov    edi,eax
 1000fac:	88 18                	mov    BYTE PTR [eax],bl
 1000fae:	c7 40 04 00 00 00 00 	mov    DWORD PTR [eax+0x4],0x0
 1000fb5:	c7 40 08 00 00 00 00 	mov    DWORD PTR [eax+0x8],0x0
 1000fbc:	c7 04 24 0c 00 00 00 	mov    DWORD PTR [esp],0xc
 1000fc3:	e8 78 2b 00 00       	call   1003b40 <_Znwj>
 1000fc8:	89 78 04             	mov    DWORD PTR [eax+0x4],edi
 1000fcb:	8b bc 24 c0 00 00 00 	mov    edi,DWORD PTR [esp+0xc0]
 1000fd2:	83 c4 10             	add    esp,0x10
 1000fd5:	89 c3                	mov    ebx,eax
 1000fd7:	c7 00 01 00 00 00    	mov    DWORD PTR [eax],0x1
 1000fdd:	b8 02 00 00 00       	mov    eax,0x2
 1000fe2:	85 ff                	test   edi,edi
 1000fe4:	74 1f                	je     1001005 <printUserMode+0xae5>
 1000fe6:	8b 07                	mov    eax,DWORD PTR [edi]
 1000fe8:	83 f8 01             	cmp    eax,0x1
 1000feb:	0f 84 42 1c 00 00    	je     1002c33 <printUserMode+0x2713>
 1000ff1:	83 e8 01             	sub    eax,0x1
 1000ff4:	89 07                	mov    DWORD PTR [edi],eax
 1000ff6:	8b 0f                	mov    ecx,DWORD PTR [edi]
 1000ff8:	85 c9                	test   ecx,ecx
 1000ffa:	0f 84 8a 1b 00 00    	je     1002b8a <printUserMode+0x266a>
 1001000:	8b 03                	mov    eax,DWORD PTR [ebx]
 1001002:	83 c0 01             	add    eax,0x1
 1001005:	8b bc 24 ac 00 00 00 	mov    edi,DWORD PTR [esp+0xac]
 100100c:	89 9c 24 b0 00 00 00 	mov    DWORD PTR [esp+0xb0],ebx
 1001013:	89 03                	mov    DWORD PTR [ebx],eax
 1001015:	85 ff                	test   edi,edi
 1001017:	0f 84 b9 17 00 00    	je     10027d6 <printUserMode+0x22b6>
 100101d:	8b 07                	mov    eax,DWORD PTR [edi]
 100101f:	83 f8 01             	cmp    eax,0x1
 1001022:	0f 84 b9 1c 00 00    	je     1002ce1 <printUserMode+0x27c1>
 1001028:	83 e8 01             	sub    eax,0x1
 100102b:	89 07                	mov    DWORD PTR [edi],eax
 100102d:	8b 0f                	mov    ecx,DWORD PTR [edi]
 100102f:	85 c9                	test   ecx,ecx
 1001031:	0f 84 39 1b 00 00    	je     1002b70 <printUserMode+0x2650>
 1001037:	8b 84 24 b0 00 00 00 	mov    eax,DWORD PTR [esp+0xb0]
 100103e:	85 c0                	test   eax,eax
 1001040:	89 84 24 ac 00 00 00 	mov    DWORD PTR [esp+0xac],eax
 1001047:	74 03                	je     100104c <printUserMode+0xb2c>
 1001049:	83 00 01             	add    DWORD PTR [eax],0x1
 100104c:	8b 03                	mov    eax,DWORD PTR [ebx]
 100104e:	83 f8 01             	cmp    eax,0x1
 1001051:	0f 84 54 1c 00 00    	je     1002cab <printUserMode+0x278b>
 1001057:	83 e8 01             	sub    eax,0x1
 100105a:	85 c0                	test   eax,eax
 100105c:	89 03                	mov    DWORD PTR [ebx],eax
 100105e:	0f 84 e7 19 00 00    	je     1002a4b <printUserMode+0x252b>
 1001064:	8b 44 24 68          	mov    eax,DWORD PTR [esp+0x68]
 1001068:	83 84 24 b4 00 00 00 	add    DWORD PTR [esp+0xb4],0x1
 100106f:	01 
 1001070:	85 c0                	test   eax,eax
 1001072:	0f 84 88 16 00 00    	je     1002700 <printUserMode+0x21e0>
 1001078:	8b 78 04             	mov    edi,DWORD PTR [eax+0x4]
 100107b:	85 ff                	test   edi,edi
 100107d:	0f 85 c3 16 00 00    	jne    1002746 <printUserMode+0x2226>
 1001083:	8b 54 24 7c          	mov    edx,DWORD PTR [esp+0x7c]
 1001087:	85 d2                	test   edx,edx
 1001089:	0f 85 e3 fe ff ff    	jne    1000f72 <printUserMode+0xa52>
 100108f:	85 c0                	test   eax,eax
 1001091:	0f 84 92 1c 00 00    	je     1002d29 <printUserMode+0x2809>
 1001097:	31 d2                	xor    edx,edx
 1001099:	e9 df fe ff ff       	jmp    1000f7d <printUserMode+0xa5d>
 100109e:	c7 01 00 00 00 00    	mov    DWORD PTR [ecx],0x0
 10010a4:	83 ec 08             	sub    esp,0x8
 10010a7:	6a 0c                	push   0xc
 10010a9:	51                   	push   ecx
 10010aa:	e8 31 2d 00 00       	call   1003de0 <_ZdlPvj>
 10010af:	83 c4 10             	add    esp,0x10
 10010b2:	e9 f7 fc ff ff       	jmp    1000dae <printUserMode+0x88e>
 10010b7:	89 f6                	mov    esi,esi
 10010b9:	8d bc 27 00 00 00 00 	lea    edi,[edi+eiz*1+0x0]
 10010c0:	8b 79 04             	mov    edi,DWORD PTR [ecx+0x4]
 10010c3:	85 ff                	test   edi,edi
 10010c5:	74 d7                	je     100109e <printUserMode+0xb7e>
 10010c7:	8b 5f 04             	mov    ebx,DWORD PTR [edi+0x4]
 10010ca:	8b 07                	mov    eax,DWORD PTR [edi]
 10010cc:	85 db                	test   ebx,ebx
 10010ce:	74 5c                	je     100112c <printUserMode+0xc0c>
 10010d0:	89 6c 24 20          	mov    DWORD PTR [esp+0x20],ebp
 10010d4:	31 f6                	xor    esi,esi
 10010d6:	89 4c 24 24          	mov    DWORD PTR [esp+0x24],ecx
 10010da:	89 fd                	mov    ebp,edi
 10010dc:	eb 0b                	jmp    10010e9 <printUserMode+0xbc9>
 10010de:	8b 45 00             	mov    eax,DWORD PTR [ebp+0x0]
 10010e1:	83 c6 01             	add    esi,0x1
 10010e4:	39 75 04             	cmp    DWORD PTR [ebp+0x4],esi
 10010e7:	76 39                	jbe    1001122 <printUserMode+0xc02>
 10010e9:	8d 0c f0             	lea    ecx,[eax+esi*8]
 10010ec:	8b 79 04             	mov    edi,DWORD PTR [ecx+0x4]
 10010ef:	85 ff                	test   edi,edi
 10010f1:	74 ee                	je     10010e1 <printUserMode+0xbc1>
 10010f3:	8b 07                	mov    eax,DWORD PTR [edi]
 10010f5:	83 f8 01             	cmp    eax,0x1
 10010f8:	0f 84 f1 06 00 00    	je     10017ef <printUserMode+0x12cf>
 10010fe:	83 e8 01             	sub    eax,0x1
 1001101:	89 07                	mov    DWORD PTR [edi],eax
 1001103:	8b 07                	mov    eax,DWORD PTR [edi]
 1001105:	85 c0                	test   eax,eax
 1001107:	75 d5                	jne    10010de <printUserMode+0xbbe>
 1001109:	83 ec 08             	sub    esp,0x8
 100110c:	83 c6 01             	add    esi,0x1
 100110f:	6a 0c                	push   0xc
 1001111:	57                   	push   edi
 1001112:	e8 c9 2c 00 00       	call   1003de0 <_ZdlPvj>
 1001117:	83 c4 10             	add    esp,0x10
 100111a:	39 75 04             	cmp    DWORD PTR [ebp+0x4],esi
 100111d:	8b 45 00             	mov    eax,DWORD PTR [ebp+0x0]
 1001120:	77 c7                	ja     10010e9 <printUserMode+0xbc9>
 1001122:	89 ef                	mov    edi,ebp
 1001124:	8b 4c 24 24          	mov    ecx,DWORD PTR [esp+0x24]
 1001128:	8b 6c 24 20          	mov    ebp,DWORD PTR [esp+0x20]
 100112c:	85 c0                	test   eax,eax
 100112e:	c7 47 04 00 00 00 00 	mov    DWORD PTR [edi+0x4],0x0
 1001135:	c7 47 08 00 00 00 00 	mov    DWORD PTR [edi+0x8],0x0
 100113c:	74 14                	je     1001152 <printUserMode+0xc32>
 100113e:	89 4c 24 10          	mov    DWORD PTR [esp+0x10],ecx
 1001142:	83 ec 0c             	sub    esp,0xc
 1001145:	50                   	push   eax
 1001146:	e8 b5 2c 00 00       	call   1003e00 <_ZdaPv>
 100114b:	83 c4 10             	add    esp,0x10
 100114e:	8b 4c 24 10          	mov    ecx,DWORD PTR [esp+0x10]
 1001152:	89 4c 24 10          	mov    DWORD PTR [esp+0x10],ecx
 1001156:	83 ec 08             	sub    esp,0x8
 1001159:	6a 0c                	push   0xc
 100115b:	57                   	push   edi
 100115c:	e8 7f 2c 00 00       	call   1003de0 <_ZdlPvj>
 1001161:	8b 4c 24 20          	mov    ecx,DWORD PTR [esp+0x20]
 1001165:	83 c4 10             	add    esp,0x10
 1001168:	8b 01                	mov    eax,DWORD PTR [ecx]
 100116a:	e9 32 fc ff ff       	jmp    1000da1 <printUserMode+0x881>
 100116f:	90                   	nop
 1001170:	8b 07                	mov    eax,DWORD PTR [edi]
 1001172:	83 f8 01             	cmp    eax,0x1
 1001175:	0f 84 6e 13 00 00    	je     10024e9 <printUserMode+0x1fc9>
 100117b:	83 e8 01             	sub    eax,0x1
 100117e:	89 07                	mov    DWORD PTR [edi],eax
 1001180:	8b 37                	mov    esi,DWORD PTR [edi]
 1001182:	85 f6                	test   esi,esi
 1001184:	74 10                	je     1001196 <printUserMode+0xc76>
 1001186:	8b 01                	mov    eax,DWORD PTR [ecx]
 1001188:	83 c0 01             	add    eax,0x1
 100118b:	89 4c 24 64          	mov    DWORD PTR [esp+0x64],ecx
 100118f:	89 01                	mov    DWORD PTR [ecx],eax
 1001191:	e9 02 fc ff ff       	jmp    1000d98 <printUserMode+0x878>
 1001196:	89 4c 24 10          	mov    DWORD PTR [esp+0x10],ecx
 100119a:	83 ec 08             	sub    esp,0x8
 100119d:	6a 0c                	push   0xc
 100119f:	57                   	push   edi
 10011a0:	e8 3b 2c 00 00       	call   1003de0 <_ZdlPvj>
 10011a5:	8b 4c 24 20          	mov    ecx,DWORD PTR [esp+0x20]
 10011a9:	83 c4 10             	add    esp,0x10
 10011ac:	8b 01                	mov    eax,DWORD PTR [ecx]
 10011ae:	eb d8                	jmp    1001188 <printUserMode+0xc68>
 10011b0:	0f b6 74 24 0c       	movzx  esi,BYTE PTR [esp+0xc]
 10011b5:	e8 a6 5c 00 00       	call   1006e60 <_ZN8keyboard6ackKeyEv>
 10011ba:	89 f0                	mov    eax,esi
 10011bc:	84 c0                	test   al,al
 10011be:	0f 85 5c fb ff ff    	jne    1000d20 <printUserMode+0x800>
 10011c4:	83 ec 0c             	sub    esp,0xc
 10011c7:	68 71 dc 01 01       	push   0x101dc71
 10011cc:	e8 3f 47 00 00       	call   1005910 <_Z6strlenPKc>
 10011d1:	83 c0 01             	add    eax,0x1
 10011d4:	89 04 24             	mov    DWORD PTR [esp],eax
 10011d7:	e8 54 29 00 00       	call   1003b30 <_Z6mallocj>
 10011dc:	89 44 24 1c          	mov    DWORD PTR [esp+0x1c],eax
 10011e0:	89 c7                	mov    edi,eax
 10011e2:	5b                   	pop    ebx
 10011e3:	5e                   	pop    esi
 10011e4:	68 71 dc 01 01       	push   0x101dc71
 10011e9:	50                   	push   eax
 10011ea:	e8 11 4a 00 00       	call   1005c00 <_Z6strcpyPcPKc>
 10011ef:	c7 04 24 71 dc 01 01 	mov    DWORD PTR [esp],0x101dc71
 10011f6:	e8 15 47 00 00       	call   1005910 <_Z6strlenPKc>
 10011fb:	83 c4 10             	add    esp,0x10
 10011fe:	85 c0                	test   eax,eax
 1001200:	0f 84 83 00 00 00    	je     1001289 <printUserMode+0xd69>
 1001206:	89 fe                	mov    esi,edi
 1001208:	8d 3c 38             	lea    edi,[eax+edi*1]
 100120b:	eb 0a                	jmp    1001217 <printUserMode+0xcf7>
 100120d:	8d 76 00             	lea    esi,[esi+0x0]
 1001210:	83 c6 01             	add    esi,0x1
 1001213:	39 fe                	cmp    esi,edi
 1001215:	74 72                	je     1001289 <printUserMode+0xd69>
 1001217:	8b 5c 24 58          	mov    ebx,DWORD PTR [esp+0x58]
 100121b:	0f be 16             	movsx  edx,BYTE PTR [esi]
 100121e:	8b 03                	mov    eax,DWORD PTR [ebx]
 1001220:	8b 00                	mov    eax,DWORD PTR [eax]
 1001222:	3d 40 13 01 01       	cmp    eax,0x1011340
 1001227:	0f 85 ab 01 00 00    	jne    10013d8 <printUserMode+0xeb8>
 100122d:	8b 43 10             	mov    eax,DWORD PTR [ebx+0x10]
 1001230:	8d 48 01             	lea    ecx,[eax+0x1]
 1001233:	89 4b 10             	mov    DWORD PTR [ebx+0x10],ecx
 1001236:	8b 4b 04             	mov    ecx,DWORD PTR [ebx+0x4]
 1001239:	88 14 01             	mov    BYTE PTR [ecx+eax*1],dl
 100123c:	8b 53 10             	mov    edx,DWORD PTR [ebx+0x10]
 100123f:	3b 53 08             	cmp    edx,DWORD PTR [ebx+0x8]
 1001242:	75 cc                	jne    1001210 <printUserMode+0xcf0>
 1001244:	8b 03                	mov    eax,DWORD PTR [ebx]
 1001246:	8b 48 0c             	mov    ecx,DWORD PTR [eax+0xc]
 1001249:	81 f9 70 12 01 01    	cmp    ecx,0x1011270
 100124f:	0f 85 ae 0b 00 00    	jne    1001e03 <printUserMode+0x18e3>
 1001255:	85 d2                	test   edx,edx
 1001257:	74 1b                	je     1001274 <printUserMode+0xd54>
 1001259:	31 ed                	xor    ebp,ebp
 100125b:	eb 05                	jmp    1001262 <printUserMode+0xd42>
 100125d:	8d 76 00             	lea    esi,[esi+0x0]
 1001260:	8b 03                	mov    eax,DWORD PTR [ebx]
 1001262:	83 ec 0c             	sub    esp,0xc
 1001265:	83 c5 01             	add    ebp,0x1
 1001268:	53                   	push   ebx
 1001269:	ff 50 14             	call   DWORD PTR [eax+0x14]
 100126c:	83 c4 10             	add    esp,0x10
 100126f:	39 6b 08             	cmp    DWORD PTR [ebx+0x8],ebp
 1001272:	77 ec                	ja     1001260 <printUserMode+0xd40>
 1001274:	83 c6 01             	add    esi,0x1
 1001277:	c7 43 10 00 00 00 00 	mov    DWORD PTR [ebx+0x10],0x0
 100127e:	c7 43 14 00 00 00 00 	mov    DWORD PTR [ebx+0x14],0x0
 1001285:	39 fe                	cmp    esi,edi
 1001287:	75 8e                	jne    1001217 <printUserMode+0xcf7>
 1001289:	83 ec 0c             	sub    esp,0xc
 100128c:	ff 74 24 18          	push   DWORD PTR [esp+0x18]
 1001290:	e8 7b 2b 00 00       	call   1003e10 <_Z4freePv>
 1001295:	58                   	pop    eax
 1001296:	8d 44 24 64          	lea    eax,[esp+0x64]
 100129a:	50                   	push   eax
 100129b:	e8 60 c5 00 00       	call   100d800 <_ZSt4endlRSt7ostream>
 10012a0:	c7 04 24 84 dc 01 01 	mov    DWORD PTR [esp],0x101dc84
 10012a7:	e8 c4 cc 00 00       	call   100df70 <_Z7kprintfPKc>
 10012ac:	58                   	pop    eax
 10012ad:	5a                   	pop    edx
 10012ae:	6a 00                	push   0x0
 10012b0:	68 f4 00 00 00       	push   0xf4
 10012b5:	e8 56 f4 00 00       	call   1010710 <_Z4outbth>
 10012ba:	83 c4 10             	add    esp,0x10
 10012bd:	8b 4c 24 78          	mov    ecx,DWORD PTR [esp+0x78]
 10012c1:	8b 5c 24 74          	mov    ebx,DWORD PTR [esp+0x74]
 10012c5:	85 c9                	test   ecx,ecx
 10012c7:	0f 84 68 01 00 00    	je     1001435 <printUserMode+0xf15>
 10012cd:	31 ff                	xor    edi,edi
 10012cf:	eb 30                	jmp    1001301 <printUserMode+0xde1>
 10012d1:	8d b4 26 00 00 00 00 	lea    esi,[esi+eiz*1+0x0]
 10012d8:	85 db                	test   ebx,ebx
 10012da:	8b 6e 04             	mov    ebp,DWORD PTR [esi+0x4]
 10012dd:	0f 84 3d 01 00 00    	je     1001420 <printUserMode+0xf00>
 10012e3:	8b 73 04             	mov    esi,DWORD PTR [ebx+0x4]
 10012e6:	39 f5                	cmp    ebp,esi
 10012e8:	0f 84 f8 05 00 00    	je     10018e6 <printUserMode+0x13c6>
 10012ee:	85 f6                	test   esi,esi
 10012f0:	75 2a                	jne    100131c <printUserMode+0xdfc>
 10012f2:	8b 5c 24 74          	mov    ebx,DWORD PTR [esp+0x74]
 10012f6:	83 6c 24 78 01       	sub    DWORD PTR [esp+0x78],0x1
 10012fb:	0f 84 34 01 00 00    	je     1001435 <printUserMode+0xf15>
 1001301:	8b 74 24 70          	mov    esi,DWORD PTR [esp+0x70]
 1001305:	85 f6                	test   esi,esi
 1001307:	75 cf                	jne    10012d8 <printUserMode+0xdb8>
 1001309:	85 db                	test   ebx,ebx
 100130b:	0f 84 c6 05 00 00    	je     10018d7 <printUserMode+0x13b7>
 1001311:	8b 73 04             	mov    esi,DWORD PTR [ebx+0x4]
 1001314:	85 f6                	test   esi,esi
 1001316:	0f 84 a6 0f 00 00    	je     10022c2 <printUserMode+0x1da2>
 100131c:	8b 03                	mov    eax,DWORD PTR [ebx]
 100131e:	83 f8 01             	cmp    eax,0x1
 1001321:	0f 84 bd 14 00 00    	je     10027e4 <printUserMode+0x22c4>
 1001327:	83 e8 01             	sub    eax,0x1
 100132a:	89 03                	mov    DWORD PTR [ebx],eax
 100132c:	8b 44 24 74          	mov    eax,DWORD PTR [esp+0x74]
 1001330:	85 c0                	test   eax,eax
 1001332:	74 14                	je     1001348 <printUserMode+0xe28>
 1001334:	8b 08                	mov    ecx,DWORD PTR [eax]
 1001336:	85 c9                	test   ecx,ecx
 1001338:	75 0e                	jne    1001348 <printUserMode+0xe28>
 100133a:	83 ec 08             	sub    esp,0x8
 100133d:	6a 0c                	push   0xc
 100133f:	50                   	push   eax
 1001340:	e8 9b 2a 00 00       	call   1003de0 <_ZdlPvj>
 1001345:	83 c4 10             	add    esp,0x10
 1001348:	8b 46 08             	mov    eax,DWORD PTR [esi+0x8]
 100134b:	85 c0                	test   eax,eax
 100134d:	89 44 24 74          	mov    DWORD PTR [esp+0x74],eax
 1001351:	0f 84 b9 00 00 00    	je     1001410 <printUserMode+0xef0>
 1001357:	8b 50 04             	mov    edx,DWORD PTR [eax+0x4]
 100135a:	83 00 01             	add    DWORD PTR [eax],0x1
 100135d:	8b 52 04             	mov    edx,DWORD PTR [edx+0x4]
 1001360:	85 d2                	test   edx,edx
 1001362:	0f 84 af 00 00 00    	je     1001417 <printUserMode+0xef7>
 1001368:	8b 72 04             	mov    esi,DWORD PTR [edx+0x4]
 100136b:	8b 5e 08             	mov    ebx,DWORD PTR [esi+0x8]
 100136e:	85 db                	test   ebx,ebx
 1001370:	74 29                	je     100139b <printUserMode+0xe7b>
 1001372:	8b 03                	mov    eax,DWORD PTR [ebx]
 1001374:	83 f8 01             	cmp    eax,0x1
 1001377:	0f 84 f0 07 00 00    	je     1001b6d <printUserMode+0x164d>
 100137d:	83 e8 01             	sub    eax,0x1
 1001380:	89 03                	mov    DWORD PTR [ebx],eax
 1001382:	8b 0b                	mov    ecx,DWORD PTR [ebx]
 1001384:	85 c9                	test   ecx,ecx
 1001386:	0f 84 ef 06 00 00    	je     1001a7b <printUserMode+0x155b>
 100138c:	8b 44 24 74          	mov    eax,DWORD PTR [esp+0x74]
 1001390:	85 c0                	test   eax,eax
 1001392:	c7 46 08 00 00 00 00 	mov    DWORD PTR [esi+0x8],0x0
 1001399:	74 75                	je     1001410 <printUserMode+0xef0>
 100139b:	8b 70 04             	mov    esi,DWORD PTR [eax+0x4]
 100139e:	8b 5e 04             	mov    ebx,DWORD PTR [esi+0x4]
 10013a1:	85 db                	test   ebx,ebx
 10013a3:	74 24                	je     10013c9 <printUserMode+0xea9>
 10013a5:	8b 03                	mov    eax,DWORD PTR [ebx]
 10013a7:	83 f8 01             	cmp    eax,0x1
 10013aa:	0f 84 01 08 00 00    	je     1001bb1 <printUserMode+0x1691>
 10013b0:	83 e8 01             	sub    eax,0x1
 10013b3:	89 03                	mov    DWORD PTR [ebx],eax
 10013b5:	8b 0b                	mov    ecx,DWORD PTR [ebx]
 10013b7:	85 c9                	test   ecx,ecx
 10013b9:	75 0e                	jne    10013c9 <printUserMode+0xea9>
 10013bb:	83 ec 08             	sub    esp,0x8
 10013be:	6a 0c                	push   0xc
 10013c0:	53                   	push   ebx
 10013c1:	e8 1a 2a 00 00       	call   1003de0 <_ZdlPvj>
 10013c6:	83 c4 10             	add    esp,0x10
 10013c9:	c7 46 04 00 00 00 00 	mov    DWORD PTR [esi+0x4],0x0
 10013d0:	e9 1d ff ff ff       	jmp    10012f2 <printUserMode+0xdd2>
 10013d5:	8d 76 00             	lea    esi,[esi+0x0]
 10013d8:	83 ec 08             	sub    esp,0x8
 10013db:	52                   	push   edx
 10013dc:	53                   	push   ebx
 10013dd:	ff d0                	call   eax
 10013df:	83 c4 10             	add    esp,0x10
 10013e2:	e9 29 fe ff ff       	jmp    1001210 <printUserMode+0xcf0>
 10013e7:	83 ec 0c             	sub    esp,0xc
 10013ea:	8d 84 24 80 00 00 00 	lea    eax,[esp+0x80]
 10013f1:	50                   	push   eax
 10013f2:	e8 09 06 01 00       	call   1011a00 <_ZNSt10shared_ptrISt11__dequeNodeIjESt15default_deleterIS1_EE3decEv>
 10013f7:	8b 43 08             	mov    eax,DWORD PTR [ebx+0x8]
 10013fa:	89 84 24 84 00 00 00 	mov    DWORD PTR [esp+0x84],eax
 1001401:	83 c4 10             	add    esp,0x10
 1001404:	85 c0                	test   eax,eax
 1001406:	0f 85 89 05 00 00    	jne    1001995 <printUserMode+0x1475>
 100140c:	8d 74 26 00          	lea    esi,[esi+eiz*1+0x0]
 1001410:	a1 04 00 00 00       	mov    eax,ds:0x4
 1001415:	0f 0b                	ud2    
 1001417:	a1 08 00 00 00       	mov    eax,ds:0x8
 100141c:	0f 0b                	ud2    
 100141e:	66 90                	xchg   ax,ax
 1001420:	85 ed                	test   ebp,ebp
 1001422:	0f 84 b8 10 00 00    	je     10024e0 <printUserMode+0x1fc0>
 1001428:	31 db                	xor    ebx,ebx
 100142a:	83 6c 24 78 01       	sub    DWORD PTR [esp+0x78],0x1
 100142f:	0f 85 cc fe ff ff    	jne    1001301 <printUserMode+0xde1>
 1001435:	85 db                	test   ebx,ebx
 1001437:	74 24                	je     100145d <printUserMode+0xf3d>
 1001439:	8b 03                	mov    eax,DWORD PTR [ebx]
 100143b:	83 f8 01             	cmp    eax,0x1
 100143e:	0f 84 a4 0c 00 00    	je     10020e8 <printUserMode+0x1bc8>
 1001444:	83 e8 01             	sub    eax,0x1
 1001447:	89 03                	mov    DWORD PTR [ebx],eax
 1001449:	8b 03                	mov    eax,DWORD PTR [ebx]
 100144b:	85 c0                	test   eax,eax
 100144d:	75 0e                	jne    100145d <printUserMode+0xf3d>
 100144f:	83 ec 08             	sub    esp,0x8
 1001452:	6a 0c                	push   0xc
 1001454:	53                   	push   ebx
 1001455:	e8 86 29 00 00       	call   1003de0 <_ZdlPvj>
 100145a:	83 c4 10             	add    esp,0x10
 100145d:	8b 5c 24 70          	mov    ebx,DWORD PTR [esp+0x70]
 1001461:	85 db                	test   ebx,ebx
 1001463:	74 24                	je     1001489 <printUserMode+0xf69>
 1001465:	8b 03                	mov    eax,DWORD PTR [ebx]
 1001467:	83 f8 01             	cmp    eax,0x1
 100146a:	0f 84 30 0c 00 00    	je     10020a0 <printUserMode+0x1b80>
 1001470:	83 e8 01             	sub    eax,0x1
 1001473:	89 03                	mov    DWORD PTR [ebx],eax
 1001475:	8b 0b                	mov    ecx,DWORD PTR [ebx]
 1001477:	85 c9                	test   ecx,ecx
 1001479:	75 0e                	jne    1001489 <printUserMode+0xf69>
 100147b:	83 ec 08             	sub    esp,0x8
 100147e:	6a 0c                	push   0xc
 1001480:	53                   	push   ebx
 1001481:	e8 5a 29 00 00       	call   1003de0 <_ZdlPvj>
 1001486:	83 c4 10             	add    esp,0x10
 1001489:	8b 5c 24 64          	mov    ebx,DWORD PTR [esp+0x64]
 100148d:	85 db                	test   ebx,ebx
 100148f:	74 24                	je     10014b5 <printUserMode+0xf95>
 1001491:	8b 03                	mov    eax,DWORD PTR [ebx]
 1001493:	83 f8 01             	cmp    eax,0x1
 1001496:	0f 84 72 0b 00 00    	je     100200e <printUserMode+0x1aee>
 100149c:	83 e8 01             	sub    eax,0x1
 100149f:	89 03                	mov    DWORD PTR [ebx],eax
 10014a1:	8b 0b                	mov    ecx,DWORD PTR [ebx]
 10014a3:	85 c9                	test   ecx,ecx
 10014a5:	75 0e                	jne    10014b5 <printUserMode+0xf95>
 10014a7:	83 ec 08             	sub    esp,0x8
 10014aa:	6a 0c                	push   0xc
 10014ac:	53                   	push   ebx
 10014ad:	e8 2e 29 00 00       	call   1003de0 <_ZdlPvj>
 10014b2:	83 c4 10             	add    esp,0x10
 10014b5:	8b 5c 24 60          	mov    ebx,DWORD PTR [esp+0x60]
 10014b9:	85 db                	test   ebx,ebx
 10014bb:	74 24                	je     10014e1 <printUserMode+0xfc1>
 10014bd:	8b 03                	mov    eax,DWORD PTR [ebx]
 10014bf:	83 f8 01             	cmp    eax,0x1
 10014c2:	0f 84 b4 0a 00 00    	je     1001f7c <printUserMode+0x1a5c>
 10014c8:	83 e8 01             	sub    eax,0x1
 10014cb:	89 03                	mov    DWORD PTR [ebx],eax
 10014cd:	8b 03                	mov    eax,DWORD PTR [ebx]
 10014cf:	85 c0                	test   eax,eax
 10014d1:	75 0e                	jne    10014e1 <printUserMode+0xfc1>
 10014d3:	83 ec 08             	sub    esp,0x8
 10014d6:	6a 0c                	push   0xc
 10014d8:	53                   	push   ebx
 10014d9:	e8 02 29 00 00       	call   1003de0 <_ZdlPvj>
 10014de:	83 c4 10             	add    esp,0x10
 10014e1:	8b 84 24 b4 00 00 00 	mov    eax,DWORD PTR [esp+0xb4]
 10014e8:	c7 84 24 94 00 00 00 	mov    DWORD PTR [esp+0x94],0x101e150
 10014ef:	50 e1 01 01 
 10014f3:	8b 9c 24 b0 00 00 00 	mov    ebx,DWORD PTR [esp+0xb0]
 10014fa:	85 c0                	test   eax,eax
 10014fc:	74 6e                	je     100156c <printUserMode+0x104c>
 10014fe:	31 ff                	xor    edi,edi
 1001500:	eb 35                	jmp    1001537 <printUserMode+0x1017>
 1001502:	8d b6 00 00 00 00    	lea    esi,[esi+0x0]
 1001508:	85 db                	test   ebx,ebx
 100150a:	8b 6e 04             	mov    ebp,DWORD PTR [esi+0x4]
 100150d:	0f 84 ed 00 00 00    	je     1001600 <printUserMode+0x10e0>
 1001513:	8b 73 04             	mov    esi,DWORD PTR [ebx+0x4]
 1001516:	39 ee                	cmp    esi,ebp
 1001518:	0f 84 e8 01 00 00    	je     1001706 <printUserMode+0x11e6>
 100151e:	85 f6                	test   esi,esi
 1001520:	0f 85 f2 00 00 00    	jne    1001618 <printUserMode+0x10f8>
 1001526:	8b 9c 24 b0 00 00 00 	mov    ebx,DWORD PTR [esp+0xb0]
 100152d:	83 ac 24 b4 00 00 00 	sub    DWORD PTR [esp+0xb4],0x1
 1001534:	01 
 1001535:	74 35                	je     100156c <printUserMode+0x104c>
 1001537:	8b b4 24 ac 00 00 00 	mov    esi,DWORD PTR [esp+0xac]
 100153e:	85 f6                	test   esi,esi
 1001540:	75 c6                	jne    1001508 <printUserMode+0xfe8>
 1001542:	31 ed                	xor    ebp,ebp
 1001544:	85 db                	test   ebx,ebx
 1001546:	75 cb                	jne    1001513 <printUserMode+0xff3>
 1001548:	89 bc 24 b0 00 00 00 	mov    DWORD PTR [esp+0xb0],edi
 100154f:	89 bc 24 ac 00 00 00 	mov    DWORD PTR [esp+0xac],edi
 1001556:	8d 76 00             	lea    esi,[esi+0x0]
 1001559:	8d bc 27 00 00 00 00 	lea    edi,[edi+eiz*1+0x0]
 1001560:	31 db                	xor    ebx,ebx
 1001562:	83 ac 24 b4 00 00 00 	sub    DWORD PTR [esp+0xb4],0x1
 1001569:	01 
 100156a:	75 cb                	jne    1001537 <printUserMode+0x1017>
 100156c:	85 db                	test   ebx,ebx
 100156e:	74 24                	je     1001594 <printUserMode+0x1074>
 1001570:	8b 03                	mov    eax,DWORD PTR [ebx]
 1001572:	83 f8 01             	cmp    eax,0x1
 1001575:	0f 84 46 09 00 00    	je     1001ec1 <printUserMode+0x19a1>
 100157b:	83 e8 01             	sub    eax,0x1
 100157e:	89 03                	mov    DWORD PTR [ebx],eax
 1001580:	8b 33                	mov    esi,DWORD PTR [ebx]
 1001582:	85 f6                	test   esi,esi
 1001584:	75 0e                	jne    1001594 <printUserMode+0x1074>
 1001586:	83 ec 08             	sub    esp,0x8
 1001589:	6a 0c                	push   0xc
 100158b:	53                   	push   ebx
 100158c:	e8 4f 28 00 00       	call   1003de0 <_ZdlPvj>
 1001591:	83 c4 10             	add    esp,0x10
 1001594:	8b 9c 24 ac 00 00 00 	mov    ebx,DWORD PTR [esp+0xac]
 100159b:	85 db                	test   ebx,ebx
 100159d:	74 24                	je     10015c3 <printUserMode+0x10a3>
 100159f:	8b 03                	mov    eax,DWORD PTR [ebx]
 10015a1:	83 f8 01             	cmp    eax,0x1
 10015a4:	0f 84 cf 08 00 00    	je     1001e79 <printUserMode+0x1959>
 10015aa:	83 e8 01             	sub    eax,0x1
 10015ad:	89 03                	mov    DWORD PTR [ebx],eax
 10015af:	8b 03                	mov    eax,DWORD PTR [ebx]
 10015b1:	85 c0                	test   eax,eax
 10015b3:	75 0e                	jne    10015c3 <printUserMode+0x10a3>
 10015b5:	83 ec 08             	sub    esp,0x8
 10015b8:	6a 0c                	push   0xc
 10015ba:	53                   	push   ebx
 10015bb:	e8 20 28 00 00       	call   1003de0 <_ZdlPvj>
 10015c0:	83 c4 10             	add    esp,0x10
 10015c3:	8b 84 24 98 00 00 00 	mov    eax,DWORD PTR [esp+0x98]
 10015ca:	c7 84 24 9c 00 00 00 	mov    DWORD PTR [esp+0x9c],0x0
 10015d1:	00 00 00 00 
 10015d5:	c7 84 24 a0 00 00 00 	mov    DWORD PTR [esp+0xa0],0x0
 10015dc:	00 00 00 00 
 10015e0:	85 c0                	test   eax,eax
 10015e2:	74 0c                	je     10015f0 <printUserMode+0x10d0>
 10015e4:	83 ec 0c             	sub    esp,0xc
 10015e7:	50                   	push   eax
 10015e8:	e8 13 28 00 00       	call   1003e00 <_ZdaPv>
 10015ed:	83 c4 10             	add    esp,0x10
 10015f0:	81 c4 cc 08 00 00    	add    esp,0x8cc
 10015f6:	5b                   	pop    ebx
 10015f7:	5e                   	pop    esi
 10015f8:	5f                   	pop    edi
 10015f9:	5d                   	pop    ebp
 10015fa:	c3                   	ret    
 10015fb:	90                   	nop
 10015fc:	8d 74 26 00          	lea    esi,[esi+eiz*1+0x0]
 1001600:	85 ed                	test   ebp,ebp
 1001602:	0f 85 58 ff ff ff    	jne    1001560 <printUserMode+0x1040>
 1001608:	89 bc 24 b0 00 00 00 	mov    DWORD PTR [esp+0xb0],edi
 100160f:	e9 22 01 00 00       	jmp    1001736 <printUserMode+0x1216>
 1001614:	8d 74 26 00          	lea    esi,[esi+eiz*1+0x0]
 1001618:	8b 03                	mov    eax,DWORD PTR [ebx]
 100161a:	83 f8 01             	cmp    eax,0x1
 100161d:	0f 84 ec 11 00 00    	je     100280f <printUserMode+0x22ef>
 1001623:	83 e8 01             	sub    eax,0x1
 1001626:	89 03                	mov    DWORD PTR [ebx],eax
 1001628:	8b 84 24 b0 00 00 00 	mov    eax,DWORD PTR [esp+0xb0]
 100162f:	85 c0                	test   eax,eax
 1001631:	74 14                	je     1001647 <printUserMode+0x1127>
 1001633:	8b 08                	mov    ecx,DWORD PTR [eax]
 1001635:	85 c9                	test   ecx,ecx
 1001637:	75 0e                	jne    1001647 <printUserMode+0x1127>
 1001639:	83 ec 08             	sub    esp,0x8
 100163c:	6a 0c                	push   0xc
 100163e:	50                   	push   eax
 100163f:	e8 9c 27 00 00       	call   1003de0 <_ZdlPvj>
 1001644:	83 c4 10             	add    esp,0x10
 1001647:	89 bc 24 b0 00 00 00 	mov    DWORD PTR [esp+0xb0],edi
 100164e:	8b 46 08             	mov    eax,DWORD PTR [esi+0x8]
 1001651:	85 c0                	test   eax,eax
 1001653:	89 84 24 b0 00 00 00 	mov    DWORD PTR [esp+0xb0],eax
 100165a:	0f 84 b0 fd ff ff    	je     1001410 <printUserMode+0xef0>
 1001660:	83 00 01             	add    DWORD PTR [eax],0x1
 1001663:	8b 40 04             	mov    eax,DWORD PTR [eax+0x4]
 1001666:	8b 40 04             	mov    eax,DWORD PTR [eax+0x4]
 1001669:	85 c0                	test   eax,eax
 100166b:	0f 84 a6 fd ff ff    	je     1001417 <printUserMode+0xef7>
 1001671:	8b 70 04             	mov    esi,DWORD PTR [eax+0x4]
 1001674:	8b 5e 08             	mov    ebx,DWORD PTR [esi+0x8]
 1001677:	85 db                	test   ebx,ebx
 1001679:	74 24                	je     100169f <printUserMode+0x117f>
 100167b:	8b 03                	mov    eax,DWORD PTR [ebx]
 100167d:	83 f8 01             	cmp    eax,0x1
 1001680:	0f 84 b3 05 00 00    	je     1001c39 <printUserMode+0x1719>
 1001686:	83 e8 01             	sub    eax,0x1
 1001689:	89 03                	mov    DWORD PTR [ebx],eax
 100168b:	8b 0b                	mov    ecx,DWORD PTR [ebx]
 100168d:	85 c9                	test   ecx,ecx
 100168f:	75 0e                	jne    100169f <printUserMode+0x117f>
 1001691:	83 ec 08             	sub    esp,0x8
 1001694:	6a 0c                	push   0xc
 1001696:	53                   	push   ebx
 1001697:	e8 44 27 00 00       	call   1003de0 <_ZdlPvj>
 100169c:	83 c4 10             	add    esp,0x10
 100169f:	c7 46 08 00 00 00 00 	mov    DWORD PTR [esi+0x8],0x0
 10016a6:	8b 84 24 b0 00 00 00 	mov    eax,DWORD PTR [esp+0xb0]
 10016ad:	85 c0                	test   eax,eax
 10016af:	0f 84 5b fd ff ff    	je     1001410 <printUserMode+0xef0>
 10016b5:	8b 70 04             	mov    esi,DWORD PTR [eax+0x4]
 10016b8:	8b 5e 04             	mov    ebx,DWORD PTR [esi+0x4]
 10016bb:	85 db                	test   ebx,ebx
 10016bd:	74 24                	je     10016e3 <printUserMode+0x11c3>
 10016bf:	8b 03                	mov    eax,DWORD PTR [ebx]
 10016c1:	83 f8 01             	cmp    eax,0x1
 10016c4:	0f 84 2b 05 00 00    	je     1001bf5 <printUserMode+0x16d5>
 10016ca:	83 e8 01             	sub    eax,0x1
 10016cd:	89 03                	mov    DWORD PTR [ebx],eax
 10016cf:	8b 03                	mov    eax,DWORD PTR [ebx]
 10016d1:	85 c0                	test   eax,eax
 10016d3:	75 0e                	jne    10016e3 <printUserMode+0x11c3>
 10016d5:	83 ec 08             	sub    esp,0x8
 10016d8:	6a 0c                	push   0xc
 10016da:	53                   	push   ebx
 10016db:	e8 00 27 00 00       	call   1003de0 <_ZdlPvj>
 10016e0:	83 c4 10             	add    esp,0x10
 10016e3:	c7 46 04 00 00 00 00 	mov    DWORD PTR [esi+0x4],0x0
 10016ea:	e9 37 fe ff ff       	jmp    1001526 <printUserMode+0x1006>
 10016ef:	89 e8                	mov    eax,ebp
 10016f1:	0f b6 c0             	movzx  eax,al
 10016f4:	8b 9c 84 c0 00 00 00 	mov    ebx,DWORD PTR [esp+eax*4+0xc0]
 10016fb:	83 fb ff             	cmp    ebx,0xffffffff
 10016fe:	0f 44 dd             	cmove  ebx,ebp
 1001701:	e9 f2 f7 ff ff       	jmp    1000ef8 <printUserMode+0x9d8>
 1001706:	8b 03                	mov    eax,DWORD PTR [ebx]
 1001708:	83 f8 01             	cmp    eax,0x1
 100170b:	0f 84 67 0a 00 00    	je     1002178 <printUserMode+0x1c58>
 1001711:	83 e8 01             	sub    eax,0x1
 1001714:	89 03                	mov    DWORD PTR [ebx],eax
 1001716:	8b 0b                	mov    ecx,DWORD PTR [ebx]
 1001718:	85 c9                	test   ecx,ecx
 100171a:	0f 84 25 07 00 00    	je     1001e45 <printUserMode+0x1925>
 1001720:	8b b4 24 ac 00 00 00 	mov    esi,DWORD PTR [esp+0xac]
 1001727:	85 f6                	test   esi,esi
 1001729:	89 bc 24 b0 00 00 00 	mov    DWORD PTR [esp+0xb0],edi
 1001730:	0f 84 19 fe ff ff    	je     100154f <printUserMode+0x102f>
 1001736:	8b 06                	mov    eax,DWORD PTR [esi]
 1001738:	83 f8 01             	cmp    eax,0x1
 100173b:	0f 84 ef 09 00 00    	je     1002130 <printUserMode+0x1c10>
 1001741:	83 e8 01             	sub    eax,0x1
 1001744:	89 06                	mov    DWORD PTR [esi],eax
 1001746:	8b 06                	mov    eax,DWORD PTR [esi]
 1001748:	85 c0                	test   eax,eax
 100174a:	0f 84 0f 07 00 00    	je     1001e5f <printUserMode+0x193f>
 1001750:	8b 9c 24 b0 00 00 00 	mov    ebx,DWORD PTR [esp+0xb0]
 1001757:	85 db                	test   ebx,ebx
 1001759:	89 9c 24 ac 00 00 00 	mov    DWORD PTR [esp+0xac],ebx
 1001760:	0f 84 fa fd ff ff    	je     1001560 <printUserMode+0x1040>
 1001766:	8b 73 04             	mov    esi,DWORD PTR [ebx+0x4]
 1001769:	83 03 01             	add    DWORD PTR [ebx],0x1
 100176c:	85 f6                	test   esi,esi
 100176e:	0f 84 b9 fd ff ff    	je     100152d <printUserMode+0x100d>
 1001774:	8d 46 04             	lea    eax,[esi+0x4]
 1001777:	83 ec 0c             	sub    esp,0xc
 100177a:	50                   	push   eax
 100177b:	e8 70 03 01 00       	call   1011af0 <_ZNSt10shared_ptrISt11__dequeNodeIcESt15default_deleterIS1_EE3decEv>
 1001780:	c7 46 04 00 00 00 00 	mov    DWORD PTR [esi+0x4],0x0
 1001787:	8b 84 24 bc 00 00 00 	mov    eax,DWORD PTR [esp+0xbc]
 100178e:	83 c4 10             	add    esp,0x10
 1001791:	85 c0                	test   eax,eax
 1001793:	74 30                	je     10017c5 <printUserMode+0x12a5>
 1001795:	8b 58 04             	mov    ebx,DWORD PTR [eax+0x4]
 1001798:	83 ec 0c             	sub    esp,0xc
 100179b:	8d 43 08             	lea    eax,[ebx+0x8]
 100179e:	50                   	push   eax
 100179f:	e8 4c 03 01 00       	call   1011af0 <_ZNSt10shared_ptrISt11__dequeNodeIcESt15default_deleterIS1_EE3decEv>
 10017a4:	c7 43 08 00 00 00 00 	mov    DWORD PTR [ebx+0x8],0x0
 10017ab:	8b 9c 24 c0 00 00 00 	mov    ebx,DWORD PTR [esp+0xc0]
 10017b2:	83 c4 10             	add    esp,0x10
 10017b5:	85 db                	test   ebx,ebx
 10017b7:	0f 84 70 fd ff ff    	je     100152d <printUserMode+0x100d>
 10017bd:	8b 73 04             	mov    esi,DWORD PTR [ebx+0x4]
 10017c0:	e9 59 fd ff ff       	jmp    100151e <printUserMode+0xffe>
 10017c5:	83 ec 0c             	sub    esp,0xc
 10017c8:	6a 08                	push   0x8
 10017ca:	e8 21 03 01 00       	call   1011af0 <_ZNSt10shared_ptrISt11__dequeNodeIcESt15default_deleterIS1_EE3decEv>
 10017cf:	c7 05 08 00 00 00 00 	mov    DWORD PTR ds:0x8,0x0
 10017d6:	00 00 00 
 10017d9:	0f 0b                	ud2    
 10017db:	c6 44 24 1e 01       	mov    BYTE PTR [esp+0x1e],0x1
 10017e0:	e9 e4 f6 ff ff       	jmp    1000ec9 <printUserMode+0x9a9>
 10017e5:	c6 44 24 1e 00       	mov    BYTE PTR [esp+0x1e],0x0
 10017ea:	e9 da f6 ff ff       	jmp    1000ec9 <printUserMode+0x9a9>
 10017ef:	8b 57 04             	mov    edx,DWORD PTR [edi+0x4]
 10017f2:	85 d2                	test   edx,edx
 10017f4:	89 54 24 10          	mov    DWORD PTR [esp+0x10],edx
 10017f8:	0f 84 00 f9 ff ff    	je     10010fe <printUserMode+0xbde>
 10017fe:	8b 02                	mov    eax,DWORD PTR [edx]
 1001800:	8b 52 04             	mov    edx,DWORD PTR [edx+0x4]
 1001803:	85 d2                	test   edx,edx
 1001805:	74 78                	je     100187f <printUserMode+0x135f>
 1001807:	31 d2                	xor    edx,edx
 1001809:	89 74 24 30          	mov    DWORD PTR [esp+0x30],esi
 100180d:	89 6c 24 28          	mov    DWORD PTR [esp+0x28],ebp
 1001811:	89 4c 24 2c          	mov    DWORD PTR [esp+0x2c],ecx
 1001815:	89 7c 24 34          	mov    DWORD PTR [esp+0x34],edi
 1001819:	89 d6                	mov    esi,edx
 100181b:	eb 12                	jmp    100182f <printUserMode+0x130f>
 100181d:	8b 44 24 10          	mov    eax,DWORD PTR [esp+0x10]
 1001821:	8b 00                	mov    eax,DWORD PTR [eax]
 1001823:	8b 4c 24 10          	mov    ecx,DWORD PTR [esp+0x10]
 1001827:	83 c6 01             	add    esi,0x1
 100182a:	39 71 04             	cmp    DWORD PTR [ecx+0x4],esi
 100182d:	76 40                	jbe    100186f <printUserMode+0x134f>
 100182f:	8d 2c f0             	lea    ebp,[eax+esi*8]
 1001832:	8b 5d 04             	mov    ebx,DWORD PTR [ebp+0x4]
 1001835:	85 db                	test   ebx,ebx
 1001837:	74 ea                	je     1001823 <printUserMode+0x1303>
 1001839:	8b 03                	mov    eax,DWORD PTR [ebx]
 100183b:	83 f8 01             	cmp    eax,0x1
 100183e:	0f 84 10 0a 00 00    	je     1002254 <printUserMode+0x1d34>
 1001844:	83 e8 01             	sub    eax,0x1
 1001847:	89 03                	mov    DWORD PTR [ebx],eax
 1001849:	8b 03                	mov    eax,DWORD PTR [ebx]
 100184b:	85 c0                	test   eax,eax
 100184d:	75 ce                	jne    100181d <printUserMode+0x12fd>
 100184f:	83 ec 08             	sub    esp,0x8
 1001852:	83 c6 01             	add    esi,0x1
 1001855:	6a 0c                	push   0xc
 1001857:	53                   	push   ebx
 1001858:	e8 83 25 00 00       	call   1003de0 <_ZdlPvj>
 100185d:	8b 44 24 20          	mov    eax,DWORD PTR [esp+0x20]
 1001861:	83 c4 10             	add    esp,0x10
 1001864:	8b 4c 24 10          	mov    ecx,DWORD PTR [esp+0x10]
 1001868:	39 71 04             	cmp    DWORD PTR [ecx+0x4],esi
 100186b:	8b 00                	mov    eax,DWORD PTR [eax]
 100186d:	77 c0                	ja     100182f <printUserMode+0x130f>
 100186f:	8b 6c 24 28          	mov    ebp,DWORD PTR [esp+0x28]
 1001873:	8b 4c 24 2c          	mov    ecx,DWORD PTR [esp+0x2c]
 1001877:	8b 74 24 30          	mov    esi,DWORD PTR [esp+0x30]
 100187b:	8b 7c 24 34          	mov    edi,DWORD PTR [esp+0x34]
 100187f:	8b 54 24 10          	mov    edx,DWORD PTR [esp+0x10]
 1001883:	85 c0                	test   eax,eax
 1001885:	c7 42 04 00 00 00 00 	mov    DWORD PTR [edx+0x4],0x0
 100188c:	c7 42 08 00 00 00 00 	mov    DWORD PTR [edx+0x8],0x0
 1001893:	74 14                	je     10018a9 <printUserMode+0x1389>
 1001895:	89 4c 24 28          	mov    DWORD PTR [esp+0x28],ecx
 1001899:	83 ec 0c             	sub    esp,0xc
 100189c:	50                   	push   eax
 100189d:	e8 5e 25 00 00       	call   1003e00 <_ZdaPv>
 10018a2:	83 c4 10             	add    esp,0x10
 10018a5:	8b 4c 24 28          	mov    ecx,DWORD PTR [esp+0x28]
 10018a9:	89 4c 24 28          	mov    DWORD PTR [esp+0x28],ecx
 10018ad:	83 ec 08             	sub    esp,0x8
 10018b0:	6a 0c                	push   0xc
 10018b2:	ff 74 24 1c          	push   DWORD PTR [esp+0x1c]
 10018b6:	e8 25 25 00 00       	call   1003de0 <_ZdlPvj>
 10018bb:	8b 4c 24 38          	mov    ecx,DWORD PTR [esp+0x38]
 10018bf:	83 c4 10             	add    esp,0x10
 10018c2:	8b 41 04             	mov    eax,DWORD PTR [ecx+0x4]
 10018c5:	83 2f 01             	sub    DWORD PTR [edi],0x1
 10018c8:	85 c0                	test   eax,eax
 10018ca:	0f 84 0e f8 ff ff    	je     10010de <printUserMode+0xbbe>
 10018d0:	89 c7                	mov    edi,eax
 10018d2:	e9 2c f8 ff ff       	jmp    1001103 <printUserMode+0xbe3>
 10018d7:	89 7c 24 74          	mov    DWORD PTR [esp+0x74],edi
 10018db:	89 7c 24 70          	mov    DWORD PTR [esp+0x70],edi
 10018df:	31 db                	xor    ebx,ebx
 10018e1:	e9 44 fb ff ff       	jmp    100142a <printUserMode+0xf0a>
 10018e6:	8b 03                	mov    eax,DWORD PTR [ebx]
 10018e8:	83 f8 01             	cmp    eax,0x1
 10018eb:	0f 84 69 0c 00 00    	je     100255a <printUserMode+0x203a>
 10018f1:	83 e8 01             	sub    eax,0x1
 10018f4:	89 03                	mov    DWORD PTR [ebx],eax
 10018f6:	8b 0b                	mov    ecx,DWORD PTR [ebx]
 10018f8:	85 c9                	test   ecx,ecx
 10018fa:	0f 84 2b 05 00 00    	je     1001e2b <printUserMode+0x190b>
 1001900:	8b 74 24 70          	mov    esi,DWORD PTR [esp+0x70]
 1001904:	85 f6                	test   esi,esi
 1001906:	89 7c 24 74          	mov    DWORD PTR [esp+0x74],edi
 100190a:	74 cf                	je     10018db <printUserMode+0x13bb>
 100190c:	8b 06                	mov    eax,DWORD PTR [esi]
 100190e:	83 f8 01             	cmp    eax,0x1
 1001911:	0f 84 a6 08 00 00    	je     10021bd <printUserMode+0x1c9d>
 1001917:	83 e8 01             	sub    eax,0x1
 100191a:	89 06                	mov    DWORD PTR [esi],eax
 100191c:	8b 06                	mov    eax,DWORD PTR [esi]
 100191e:	85 c0                	test   eax,eax
 1001920:	0f 84 eb 04 00 00    	je     1001e11 <printUserMode+0x18f1>
 1001926:	8b 5c 24 74          	mov    ebx,DWORD PTR [esp+0x74]
 100192a:	85 db                	test   ebx,ebx
 100192c:	89 5c 24 70          	mov    DWORD PTR [esp+0x70],ebx
 1001930:	0f 84 f2 fa ff ff    	je     1001428 <printUserMode+0xf08>
 1001936:	8b 73 04             	mov    esi,DWORD PTR [ebx+0x4]
 1001939:	83 03 01             	add    DWORD PTR [ebx],0x1
 100193c:	85 f6                	test   esi,esi
 100193e:	0f 84 b2 f9 ff ff    	je     10012f6 <printUserMode+0xdd6>
 1001944:	8d 46 04             	lea    eax,[esi+0x4]
 1001947:	83 ec 0c             	sub    esp,0xc
 100194a:	50                   	push   eax
 100194b:	e8 b0 00 01 00       	call   1011a00 <_ZNSt10shared_ptrISt11__dequeNodeIjESt15default_deleterIS1_EE3decEv>
 1001950:	8b 84 24 80 00 00 00 	mov    eax,DWORD PTR [esp+0x80]
 1001957:	83 c4 10             	add    esp,0x10
 100195a:	c7 46 04 00 00 00 00 	mov    DWORD PTR [esi+0x4],0x0
 1001961:	85 c0                	test   eax,eax
 1001963:	74 41                	je     10019a6 <printUserMode+0x1486>
 1001965:	8b 58 04             	mov    ebx,DWORD PTR [eax+0x4]
 1001968:	83 ec 0c             	sub    esp,0xc
 100196b:	8d 43 08             	lea    eax,[ebx+0x8]
 100196e:	50                   	push   eax
 100196f:	e8 8c 00 01 00       	call   1011a00 <_ZNSt10shared_ptrISt11__dequeNodeIjESt15default_deleterIS1_EE3decEv>
 1001974:	c7 43 08 00 00 00 00 	mov    DWORD PTR [ebx+0x8],0x0
 100197b:	8b 9c 24 84 00 00 00 	mov    ebx,DWORD PTR [esp+0x84]
 1001982:	83 c4 10             	add    esp,0x10
 1001985:	85 db                	test   ebx,ebx
 1001987:	0f 84 69 f9 ff ff    	je     10012f6 <printUserMode+0xdd6>
 100198d:	8b 73 04             	mov    esi,DWORD PTR [ebx+0x4]
 1001990:	e9 59 f9 ff ff       	jmp    10012ee <printUserMode+0xdce>
 1001995:	83 00 01             	add    DWORD PTR [eax],0x1
 1001998:	8b 40 04             	mov    eax,DWORD PTR [eax+0x4]
 100199b:	8b 40 04             	mov    eax,DWORD PTR [eax+0x4]
 100199e:	85 c0                	test   eax,eax
 10019a0:	0f 85 27 15 00 00    	jne    1002ecd <printUserMode+0x29ad>
 10019a6:	83 ec 0c             	sub    esp,0xc
 10019a9:	6a 08                	push   0x8
 10019ab:	e8 50 00 01 00       	call   1011a00 <_ZNSt10shared_ptrISt11__dequeNodeIjESt15default_deleterIS1_EE3decEv>
 10019b0:	c7 05 08 00 00 00 00 	mov    DWORD PTR ds:0x8,0x0
 10019b7:	00 00 00 
 10019ba:	0f 0b                	ud2    
 10019bc:	8b 5e 04             	mov    ebx,DWORD PTR [esi+0x4]
 10019bf:	85 db                	test   ebx,ebx
 10019c1:	74 66                	je     1001a29 <printUserMode+0x1509>
 10019c3:	31 c0                	xor    eax,eax
 10019c5:	89 6c 24 28          	mov    DWORD PTR [esp+0x28],ebp
 10019c9:	89 7c 24 24          	mov    DWORD PTR [esp+0x24],edi
 10019cd:	89 f5                	mov    ebp,esi
 10019cf:	89 4c 24 2c          	mov    DWORD PTR [esp+0x2c],ecx
 10019d3:	89 c6                	mov    esi,eax
 10019d5:	eb 0b                	jmp    10019e2 <printUserMode+0x14c2>
 10019d7:	8b 55 00             	mov    edx,DWORD PTR [ebp+0x0]
 10019da:	83 c6 01             	add    esi,0x1
 10019dd:	39 75 04             	cmp    DWORD PTR [ebp+0x4],esi
 10019e0:	76 39                	jbe    1001a1b <printUserMode+0x14fb>
 10019e2:	8d 1c f2             	lea    ebx,[edx+esi*8]
 10019e5:	8b 7b 04             	mov    edi,DWORD PTR [ebx+0x4]
 10019e8:	85 ff                	test   edi,edi
 10019ea:	74 ee                	je     10019da <printUserMode+0x14ba>
 10019ec:	8b 07                	mov    eax,DWORD PTR [edi]
 10019ee:	83 f8 01             	cmp    eax,0x1
 10019f1:	0f 84 9e 00 00 00    	je     1001a95 <printUserMode+0x1575>
 10019f7:	83 e8 01             	sub    eax,0x1
 10019fa:	89 07                	mov    DWORD PTR [edi],eax
 10019fc:	8b 07                	mov    eax,DWORD PTR [edi]
 10019fe:	85 c0                	test   eax,eax
 1001a00:	75 d5                	jne    10019d7 <printUserMode+0x14b7>
 1001a02:	83 ec 08             	sub    esp,0x8
 1001a05:	83 c6 01             	add    esi,0x1
 1001a08:	6a 0c                	push   0xc
 1001a0a:	57                   	push   edi
 1001a0b:	e8 d0 23 00 00       	call   1003de0 <_ZdlPvj>
 1001a10:	83 c4 10             	add    esp,0x10
 1001a13:	39 75 04             	cmp    DWORD PTR [ebp+0x4],esi
 1001a16:	8b 55 00             	mov    edx,DWORD PTR [ebp+0x0]
 1001a19:	77 c7                	ja     10019e2 <printUserMode+0x14c2>
 1001a1b:	89 ee                	mov    esi,ebp
 1001a1d:	8b 7c 24 24          	mov    edi,DWORD PTR [esp+0x24]
 1001a21:	8b 6c 24 28          	mov    ebp,DWORD PTR [esp+0x28]
 1001a25:	8b 4c 24 2c          	mov    ecx,DWORD PTR [esp+0x2c]
 1001a29:	85 d2                	test   edx,edx
 1001a2b:	c7 46 04 00 00 00 00 	mov    DWORD PTR [esi+0x4],0x0
 1001a32:	c7 46 08 00 00 00 00 	mov    DWORD PTR [esi+0x8],0x0
 1001a39:	74 14                	je     1001a4f <printUserMode+0x152f>
 1001a3b:	89 4c 24 10          	mov    DWORD PTR [esp+0x10],ecx
 1001a3f:	83 ec 0c             	sub    esp,0xc
 1001a42:	52                   	push   edx
 1001a43:	e8 b8 23 00 00       	call   1003e00 <_ZdaPv>
 1001a48:	83 c4 10             	add    esp,0x10
 1001a4b:	8b 4c 24 10          	mov    ecx,DWORD PTR [esp+0x10]
 1001a4f:	89 4c 24 10          	mov    DWORD PTR [esp+0x10],ecx
 1001a53:	83 ec 08             	sub    esp,0x8
 1001a56:	6a 0c                	push   0xc
 1001a58:	56                   	push   esi
 1001a59:	e8 82 23 00 00       	call   1003de0 <_ZdlPvj>
 1001a5e:	8b 44 24 74          	mov    eax,DWORD PTR [esp+0x74]
 1001a62:	83 c4 10             	add    esp,0x10
 1001a65:	83 2f 01             	sub    DWORD PTR [edi],0x1
 1001a68:	8b 4c 24 10          	mov    ecx,DWORD PTR [esp+0x10]
 1001a6c:	85 c0                	test   eax,eax
 1001a6e:	0f 84 0f f3 ff ff    	je     1000d83 <printUserMode+0x863>
 1001a74:	89 c7                	mov    edi,eax
 1001a76:	e9 ec f2 ff ff       	jmp    1000d67 <printUserMode+0x847>
 1001a7b:	83 ec 08             	sub    esp,0x8
 1001a7e:	6a 0c                	push   0xc
 1001a80:	53                   	push   ebx
 1001a81:	e8 5a 23 00 00       	call   1003de0 <_ZdlPvj>
 1001a86:	8b 84 24 84 00 00 00 	mov    eax,DWORD PTR [esp+0x84]
 1001a8d:	83 c4 10             	add    esp,0x10
 1001a90:	e9 fb f8 ff ff       	jmp    1001390 <printUserMode+0xe70>
 1001a95:	8b 4f 04             	mov    ecx,DWORD PTR [edi+0x4]
 1001a98:	85 c9                	test   ecx,ecx
 1001a9a:	89 4c 24 10          	mov    DWORD PTR [esp+0x10],ecx
 1001a9e:	0f 84 53 ff ff ff    	je     10019f7 <printUserMode+0x14d7>
 1001aa4:	8b 01                	mov    eax,DWORD PTR [ecx]
 1001aa6:	8b 49 04             	mov    ecx,DWORD PTR [ecx+0x4]
 1001aa9:	85 c9                	test   ecx,ecx
 1001aab:	74 78                	je     1001b25 <printUserMode+0x1605>
 1001aad:	31 c9                	xor    ecx,ecx
 1001aaf:	89 74 24 38          	mov    DWORD PTR [esp+0x38],esi
 1001ab3:	89 6c 24 30          	mov    DWORD PTR [esp+0x30],ebp
 1001ab7:	89 5c 24 34          	mov    DWORD PTR [esp+0x34],ebx
 1001abb:	89 7c 24 3c          	mov    DWORD PTR [esp+0x3c],edi
 1001abf:	89 ce                	mov    esi,ecx
 1001ac1:	eb 12                	jmp    1001ad5 <printUserMode+0x15b5>
 1001ac3:	8b 44 24 10          	mov    eax,DWORD PTR [esp+0x10]
 1001ac7:	8b 00                	mov    eax,DWORD PTR [eax]
 1001ac9:	8b 4c 24 10          	mov    ecx,DWORD PTR [esp+0x10]
 1001acd:	83 c6 01             	add    esi,0x1
 1001ad0:	39 71 04             	cmp    DWORD PTR [ecx+0x4],esi
 1001ad3:	76 40                	jbe    1001b15 <printUserMode+0x15f5>
 1001ad5:	8d 2c f0             	lea    ebp,[eax+esi*8]
 1001ad8:	8b 5d 04             	mov    ebx,DWORD PTR [ebp+0x4]
 1001adb:	85 db                	test   ebx,ebx
 1001add:	74 ea                	je     1001ac9 <printUserMode+0x15a9>
 1001adf:	8b 03                	mov    eax,DWORD PTR [ebx]
 1001ae1:	83 f8 01             	cmp    eax,0x1
 1001ae4:	0f 84 b5 0a 00 00    	je     100259f <printUserMode+0x207f>
 1001aea:	83 e8 01             	sub    eax,0x1
 1001aed:	89 03                	mov    DWORD PTR [ebx],eax
 1001aef:	8b 03                	mov    eax,DWORD PTR [ebx]
 1001af1:	85 c0                	test   eax,eax
 1001af3:	75 ce                	jne    1001ac3 <printUserMode+0x15a3>
 1001af5:	83 ec 08             	sub    esp,0x8
 1001af8:	83 c6 01             	add    esi,0x1
 1001afb:	6a 0c                	push   0xc
 1001afd:	53                   	push   ebx
 1001afe:	e8 dd 22 00 00       	call   1003de0 <_ZdlPvj>
 1001b03:	8b 44 24 20          	mov    eax,DWORD PTR [esp+0x20]
 1001b07:	83 c4 10             	add    esp,0x10
 1001b0a:	8b 4c 24 10          	mov    ecx,DWORD PTR [esp+0x10]
 1001b0e:	39 71 04             	cmp    DWORD PTR [ecx+0x4],esi
 1001b11:	8b 00                	mov    eax,DWORD PTR [eax]
 1001b13:	77 c0                	ja     1001ad5 <printUserMode+0x15b5>
 1001b15:	8b 6c 24 30          	mov    ebp,DWORD PTR [esp+0x30]
 1001b19:	8b 5c 24 34          	mov    ebx,DWORD PTR [esp+0x34]
 1001b1d:	8b 74 24 38          	mov    esi,DWORD PTR [esp+0x38]
 1001b21:	8b 7c 24 3c          	mov    edi,DWORD PTR [esp+0x3c]
 1001b25:	8b 4c 24 10          	mov    ecx,DWORD PTR [esp+0x10]
 1001b29:	85 c0                	test   eax,eax
 1001b2b:	c7 41 04 00 00 00 00 	mov    DWORD PTR [ecx+0x4],0x0
 1001b32:	c7 41 08 00 00 00 00 	mov    DWORD PTR [ecx+0x8],0x0
 1001b39:	74 0c                	je     1001b47 <printUserMode+0x1627>
 1001b3b:	83 ec 0c             	sub    esp,0xc
 1001b3e:	50                   	push   eax
 1001b3f:	e8 bc 22 00 00       	call   1003e00 <_ZdaPv>
 1001b44:	83 c4 10             	add    esp,0x10
 1001b47:	83 ec 08             	sub    esp,0x8
 1001b4a:	6a 0c                	push   0xc
 1001b4c:	ff 74 24 1c          	push   DWORD PTR [esp+0x1c]
 1001b50:	e8 8b 22 00 00       	call   1003de0 <_ZdlPvj>
 1001b55:	8b 43 04             	mov    eax,DWORD PTR [ebx+0x4]
 1001b58:	83 c4 10             	add    esp,0x10
 1001b5b:	83 2f 01             	sub    DWORD PTR [edi],0x1
 1001b5e:	85 c0                	test   eax,eax
 1001b60:	0f 84 71 fe ff ff    	je     10019d7 <printUserMode+0x14b7>
 1001b66:	89 c7                	mov    edi,eax
 1001b68:	e9 8f fe ff ff       	jmp    10019fc <printUserMode+0x14dc>
 1001b6d:	8b 6b 04             	mov    ebp,DWORD PTR [ebx+0x4]
 1001b70:	85 ed                	test   ebp,ebp
 1001b72:	0f 84 05 f8 ff ff    	je     100137d <printUserMode+0xe5d>
 1001b78:	8d 45 08             	lea    eax,[ebp+0x8]
 1001b7b:	83 ec 0c             	sub    esp,0xc
 1001b7e:	50                   	push   eax
 1001b7f:	e8 7c fe 00 00       	call   1011a00 <_ZNSt10shared_ptrISt11__dequeNodeIjESt15default_deleterIS1_EE3decEv>
 1001b84:	8d 45 04             	lea    eax,[ebp+0x4]
 1001b87:	89 04 24             	mov    DWORD PTR [esp],eax
 1001b8a:	e8 71 fe 00 00       	call   1011a00 <_ZNSt10shared_ptrISt11__dequeNodeIjESt15default_deleterIS1_EE3decEv>
 1001b8f:	58                   	pop    eax
 1001b90:	5a                   	pop    edx
 1001b91:	6a 0c                	push   0xc
 1001b93:	55                   	push   ebp
 1001b94:	e8 47 22 00 00       	call   1003de0 <_ZdlPvj>
 1001b99:	8b 46 08             	mov    eax,DWORD PTR [esi+0x8]
 1001b9c:	83 c4 10             	add    esp,0x10
 1001b9f:	83 2b 01             	sub    DWORD PTR [ebx],0x1
 1001ba2:	85 c0                	test   eax,eax
 1001ba4:	0f 84 e2 f7 ff ff    	je     100138c <printUserMode+0xe6c>
 1001baa:	89 c3                	mov    ebx,eax
 1001bac:	e9 d1 f7 ff ff       	jmp    1001382 <printUserMode+0xe62>
 1001bb1:	8b 6b 04             	mov    ebp,DWORD PTR [ebx+0x4]
 1001bb4:	85 ed                	test   ebp,ebp
 1001bb6:	0f 84 f4 f7 ff ff    	je     10013b0 <printUserMode+0xe90>
 1001bbc:	8d 45 08             	lea    eax,[ebp+0x8]
 1001bbf:	83 ec 0c             	sub    esp,0xc
 1001bc2:	50                   	push   eax
 1001bc3:	e8 38 fe 00 00       	call   1011a00 <_ZNSt10shared_ptrISt11__dequeNodeIjESt15default_deleterIS1_EE3decEv>
 1001bc8:	8d 45 04             	lea    eax,[ebp+0x4]
 1001bcb:	89 04 24             	mov    DWORD PTR [esp],eax
 1001bce:	e8 2d fe 00 00       	call   1011a00 <_ZNSt10shared_ptrISt11__dequeNodeIjESt15default_deleterIS1_EE3decEv>
 1001bd3:	58                   	pop    eax
 1001bd4:	5a                   	pop    edx
 1001bd5:	6a 0c                	push   0xc
 1001bd7:	55                   	push   ebp
 1001bd8:	e8 03 22 00 00       	call   1003de0 <_ZdlPvj>
 1001bdd:	8b 46 04             	mov    eax,DWORD PTR [esi+0x4]
 1001be0:	83 c4 10             	add    esp,0x10
 1001be3:	83 2b 01             	sub    DWORD PTR [ebx],0x1
 1001be6:	85 c0                	test   eax,eax
 1001be8:	0f 84 db f7 ff ff    	je     10013c9 <printUserMode+0xea9>
 1001bee:	89 c3                	mov    ebx,eax
 1001bf0:	e9 c0 f7 ff ff       	jmp    10013b5 <printUserMode+0xe95>
 1001bf5:	8b 6b 04             	mov    ebp,DWORD PTR [ebx+0x4]
 1001bf8:	85 ed                	test   ebp,ebp
 1001bfa:	0f 84 ca fa ff ff    	je     10016ca <printUserMode+0x11aa>
 1001c00:	8d 45 08             	lea    eax,[ebp+0x8]
 1001c03:	83 ec 0c             	sub    esp,0xc
 1001c06:	50                   	push   eax
 1001c07:	e8 e4 fe 00 00       	call   1011af0 <_ZNSt10shared_ptrISt11__dequeNodeIcESt15default_deleterIS1_EE3decEv>
 1001c0c:	8d 45 04             	lea    eax,[ebp+0x4]
 1001c0f:	89 04 24             	mov    DWORD PTR [esp],eax
 1001c12:	e8 d9 fe 00 00       	call   1011af0 <_ZNSt10shared_ptrISt11__dequeNodeIcESt15default_deleterIS1_EE3decEv>
 1001c17:	58                   	pop    eax
 1001c18:	5a                   	pop    edx
 1001c19:	6a 0c                	push   0xc
 1001c1b:	55                   	push   ebp
 1001c1c:	e8 bf 21 00 00       	call   1003de0 <_ZdlPvj>
 1001c21:	8b 46 04             	mov    eax,DWORD PTR [esi+0x4]
 1001c24:	83 c4 10             	add    esp,0x10
 1001c27:	83 2b 01             	sub    DWORD PTR [ebx],0x1
 1001c2a:	85 c0                	test   eax,eax
 1001c2c:	0f 84 b1 fa ff ff    	je     10016e3 <printUserMode+0x11c3>
 1001c32:	89 c3                	mov    ebx,eax
 1001c34:	e9 96 fa ff ff       	jmp    10016cf <printUserMode+0x11af>
 1001c39:	8b 6b 04             	mov    ebp,DWORD PTR [ebx+0x4]
 1001c3c:	85 ed                	test   ebp,ebp
 1001c3e:	0f 84 42 fa ff ff    	je     1001686 <printUserMode+0x1166>
 1001c44:	8d 45 08             	lea    eax,[ebp+0x8]
 1001c47:	83 ec 0c             	sub    esp,0xc
 1001c4a:	50                   	push   eax
 1001c4b:	e8 a0 fe 00 00       	call   1011af0 <_ZNSt10shared_ptrISt11__dequeNodeIcESt15default_deleterIS1_EE3decEv>
 1001c50:	8d 45 04             	lea    eax,[ebp+0x4]
 1001c53:	89 04 24             	mov    DWORD PTR [esp],eax
 1001c56:	e8 95 fe 00 00       	call   1011af0 <_ZNSt10shared_ptrISt11__dequeNodeIcESt15default_deleterIS1_EE3decEv>
 1001c5b:	58                   	pop    eax
 1001c5c:	5a                   	pop    edx
 1001c5d:	6a 0c                	push   0xc
 1001c5f:	55                   	push   ebp
 1001c60:	e8 7b 21 00 00       	call   1003de0 <_ZdlPvj>
 1001c65:	8b 46 08             	mov    eax,DWORD PTR [esi+0x8]
 1001c68:	83 c4 10             	add    esp,0x10
 1001c6b:	83 2b 01             	sub    DWORD PTR [ebx],0x1
 1001c6e:	85 c0                	test   eax,eax
 1001c70:	0f 84 29 fa ff ff    	je     100169f <printUserMode+0x117f>
 1001c76:	89 c3                	mov    ebx,eax
 1001c78:	e9 0e fa ff ff       	jmp    100168b <printUserMode+0x116b>
 1001c7d:	8b 44 24 70          	mov    eax,DWORD PTR [esp+0x70]
 1001c81:	0f be f3             	movsx  esi,bl
 1001c84:	85 c0                	test   eax,eax
 1001c86:	74 0b                	je     1001c93 <printUserMode+0x1773>
 1001c88:	8b 40 04             	mov    eax,DWORD PTR [eax+0x4]
 1001c8b:	85 c0                	test   eax,eax
 1001c8d:	0f 85 93 06 00 00    	jne    1002326 <printUserMode+0x1e06>
 1001c93:	83 ec 0c             	sub    esp,0xc
 1001c96:	6a 0c                	push   0xc
 1001c98:	e8 a3 1e 00 00       	call   1003b40 <_Znwj>
 1001c9d:	89 c7                	mov    edi,eax
 1001c9f:	89 30                	mov    DWORD PTR [eax],esi
 1001ca1:	c7 40 04 00 00 00 00 	mov    DWORD PTR [eax+0x4],0x0
 1001ca8:	c7 40 08 00 00 00 00 	mov    DWORD PTR [eax+0x8],0x0
 1001caf:	c7 84 24 98 00 00 00 	mov    DWORD PTR [esp+0x98],0x0
 1001cb6:	00 00 00 00 
 1001cba:	c7 04 24 0c 00 00 00 	mov    DWORD PTR [esp],0xc
 1001cc1:	e8 7a 1e 00 00       	call   1003b40 <_Znwj>
 1001cc6:	89 78 04             	mov    DWORD PTR [eax+0x4],edi
 1001cc9:	89 84 24 98 00 00 00 	mov    DWORD PTR [esp+0x98],eax
 1001cd0:	c7 00 01 00 00 00    	mov    DWORD PTR [eax],0x1
 1001cd6:	5f                   	pop    edi
 1001cd7:	8d 84 24 80 00 00 00 	lea    eax,[esp+0x80]
 1001cde:	50                   	push   eax
 1001cdf:	e8 1c fd 00 00       	call   1011a00 <_ZNSt10shared_ptrISt11__dequeNodeIjESt15default_deleterIS1_EE3decEv>
 1001ce4:	8b 84 24 98 00 00 00 	mov    eax,DWORD PTR [esp+0x98]
 1001ceb:	89 84 24 84 00 00 00 	mov    DWORD PTR [esp+0x84],eax
 1001cf2:	83 c4 10             	add    esp,0x10
 1001cf5:	85 c0                	test   eax,eax
 1001cf7:	74 03                	je     1001cfc <printUserMode+0x17dc>
 1001cf9:	83 00 01             	add    DWORD PTR [eax],0x1
 1001cfc:	83 ec 0c             	sub    esp,0xc
 1001cff:	8d 44 24 7c          	lea    eax,[esp+0x7c]
 1001d03:	50                   	push   eax
 1001d04:	e8 f7 fc 00 00       	call   1011a00 <_ZNSt10shared_ptrISt11__dequeNodeIjESt15default_deleterIS1_EE3decEv>
 1001d09:	8b 84 24 84 00 00 00 	mov    eax,DWORD PTR [esp+0x84]
 1001d10:	89 84 24 80 00 00 00 	mov    DWORD PTR [esp+0x80],eax
 1001d17:	83 c4 10             	add    esp,0x10
 1001d1a:	85 c0                	test   eax,eax
 1001d1c:	74 03                	je     1001d21 <printUserMode+0x1801>
 1001d1e:	83 00 01             	add    DWORD PTR [eax],0x1
 1001d21:	83 ec 0c             	sub    esp,0xc
 1001d24:	8d 84 24 94 00 00 00 	lea    eax,[esp+0x94]
 1001d2b:	50                   	push   eax
 1001d2c:	e8 cf fc 00 00       	call   1011a00 <_ZNSt10shared_ptrISt11__dequeNodeIjESt15default_deleterIS1_EE3decEv>
 1001d31:	83 c4 10             	add    esp,0x10
 1001d34:	8b 7c 24 58          	mov    edi,DWORD PTR [esp+0x58]
 1001d38:	83 44 24 78 01       	add    DWORD PTR [esp+0x78],0x1
 1001d3d:	8b 07                	mov    eax,DWORD PTR [edi]
 1001d3f:	8b 00                	mov    eax,DWORD PTR [eax]
 1001d41:	3d 40 13 01 01       	cmp    eax,0x1011340
 1001d46:	0f 85 c1 14 00 00    	jne    100320d <printUserMode+0x2ced>
 1001d4c:	8b 47 10             	mov    eax,DWORD PTR [edi+0x10]
 1001d4f:	8d 50 01             	lea    edx,[eax+0x1]
 1001d52:	89 57 10             	mov    DWORD PTR [edi+0x10],edx
 1001d55:	8b 57 04             	mov    edx,DWORD PTR [edi+0x4]
 1001d58:	88 1c 02             	mov    BYTE PTR [edx+eax*1],bl
 1001d5b:	8b 57 10             	mov    edx,DWORD PTR [edi+0x10]
 1001d5e:	3b 57 08             	cmp    edx,DWORD PTR [edi+0x8]
 1001d61:	0f 84 39 07 00 00    	je     10024a0 <printUserMode+0x1f80>
 1001d67:	8b 5c 24 58          	mov    ebx,DWORD PTR [esp+0x58]
 1001d6b:	8b 03                	mov    eax,DWORD PTR [ebx]
 1001d6d:	8b 50 0c             	mov    edx,DWORD PTR [eax+0xc]
 1001d70:	81 fa 70 12 01 01    	cmp    edx,0x1011270
 1001d76:	0f 85 1e 16 00 00    	jne    100339a <printUserMode+0x2e7a>
 1001d7c:	8b 73 08             	mov    esi,DWORD PTR [ebx+0x8]
 1001d7f:	85 f6                	test   esi,esi
 1001d81:	74 21                	je     1001da4 <printUserMode+0x1884>
 1001d83:	31 f6                	xor    esi,esi
 1001d85:	eb 0b                	jmp    1001d92 <printUserMode+0x1872>
 1001d87:	89 f6                	mov    esi,esi
 1001d89:	8d bc 27 00 00 00 00 	lea    edi,[edi+eiz*1+0x0]
 1001d90:	8b 03                	mov    eax,DWORD PTR [ebx]
 1001d92:	83 ec 0c             	sub    esp,0xc
 1001d95:	83 c6 01             	add    esi,0x1
 1001d98:	53                   	push   ebx
 1001d99:	ff 50 14             	call   DWORD PTR [eax+0x14]
 1001d9c:	83 c4 10             	add    esp,0x10
 1001d9f:	39 73 08             	cmp    DWORD PTR [ebx+0x8],esi
 1001da2:	77 ec                	ja     1001d90 <printUserMode+0x1870>
 1001da4:	c7 43 10 00 00 00 00 	mov    DWORD PTR [ebx+0x10],0x0
 1001dab:	c7 43 14 00 00 00 00 	mov    DWORD PTR [ebx+0x14],0x0
 1001db2:	e9 51 f1 ff ff       	jmp    1000f08 <printUserMode+0x9e8>
 1001db7:	89 44 24 60          	mov    DWORD PTR [esp+0x60],eax
 1001dbb:	e9 8e ec ff ff       	jmp    1000a4e <printUserMode+0x52e>
 1001dc0:	c7 03 00 00 00 00    	mov    DWORD PTR [ebx],0x0
 1001dc6:	83 ec 08             	sub    esp,0x8
 1001dc9:	6a 0c                	push   0xc
 1001dcb:	53                   	push   ebx
 1001dcc:	e8 0f 20 00 00       	call   1003de0 <_ZdlPvj>
 1001dd1:	83 c4 10             	add    esp,0x10
 1001dd4:	e9 75 ec ff ff       	jmp    1000a4e <printUserMode+0x52e>
 1001dd9:	83 ec 0c             	sub    esp,0xc
 1001ddc:	53                   	push   ebx
 1001ddd:	ff d1                	call   ecx
 1001ddf:	83 c4 10             	add    esp,0x10
 1001de2:	e9 09 ea ff ff       	jmp    10007f0 <printUserMode+0x2d0>
 1001de7:	83 ec 0c             	sub    esp,0xc
 1001dea:	53                   	push   ebx
 1001deb:	ff d1                	call   ecx
 1001ded:	83 c4 10             	add    esp,0x10
 1001df0:	e9 1b e9 ff ff       	jmp    1000710 <printUserMode+0x1f0>
 1001df5:	83 ec 0c             	sub    esp,0xc
 1001df8:	53                   	push   ebx
 1001df9:	ff d1                	call   ecx
 1001dfb:	83 c4 10             	add    esp,0x10
 1001dfe:	e9 35 ee ff ff       	jmp    1000c38 <printUserMode+0x718>
 1001e03:	83 ec 0c             	sub    esp,0xc
 1001e06:	53                   	push   ebx
 1001e07:	ff d1                	call   ecx
 1001e09:	83 c4 10             	add    esp,0x10
 1001e0c:	e9 ff f3 ff ff       	jmp    1001210 <printUserMode+0xcf0>
 1001e11:	83 ec 08             	sub    esp,0x8
 1001e14:	6a 0c                	push   0xc
 1001e16:	56                   	push   esi
 1001e17:	e8 c4 1f 00 00       	call   1003de0 <_ZdlPvj>
 1001e1c:	8b 9c 24 84 00 00 00 	mov    ebx,DWORD PTR [esp+0x84]
 1001e23:	83 c4 10             	add    esp,0x10
 1001e26:	e9 ff fa ff ff       	jmp    100192a <printUserMode+0x140a>
 1001e2b:	83 ec 08             	sub    esp,0x8
 1001e2e:	6a 0c                	push   0xc
 1001e30:	53                   	push   ebx
 1001e31:	e8 aa 1f 00 00       	call   1003de0 <_ZdlPvj>
 1001e36:	8b b4 24 80 00 00 00 	mov    esi,DWORD PTR [esp+0x80]
 1001e3d:	83 c4 10             	add    esp,0x10
 1001e40:	e9 bf fa ff ff       	jmp    1001904 <printUserMode+0x13e4>
 1001e45:	83 ec 08             	sub    esp,0x8
 1001e48:	6a 0c                	push   0xc
 1001e4a:	53                   	push   ebx
 1001e4b:	e8 90 1f 00 00       	call   1003de0 <_ZdlPvj>
 1001e50:	8b b4 24 bc 00 00 00 	mov    esi,DWORD PTR [esp+0xbc]
 1001e57:	83 c4 10             	add    esp,0x10
 1001e5a:	e9 c8 f8 ff ff       	jmp    1001727 <printUserMode+0x1207>
 1001e5f:	83 ec 08             	sub    esp,0x8
 1001e62:	6a 0c                	push   0xc
 1001e64:	56                   	push   esi
 1001e65:	e8 76 1f 00 00       	call   1003de0 <_ZdlPvj>
 1001e6a:	8b 9c 24 c0 00 00 00 	mov    ebx,DWORD PTR [esp+0xc0]
 1001e71:	83 c4 10             	add    esp,0x10
 1001e74:	e9 de f8 ff ff       	jmp    1001757 <printUserMode+0x1237>
 1001e79:	8b 73 04             	mov    esi,DWORD PTR [ebx+0x4]
 1001e7c:	85 f6                	test   esi,esi
 1001e7e:	0f 84 26 f7 ff ff    	je     10015aa <printUserMode+0x108a>
 1001e84:	8d 46 08             	lea    eax,[esi+0x8]
 1001e87:	83 ec 0c             	sub    esp,0xc
 1001e8a:	50                   	push   eax
 1001e8b:	e8 60 fc 00 00       	call   1011af0 <_ZNSt10shared_ptrISt11__dequeNodeIcESt15default_deleterIS1_EE3decEv>
 1001e90:	8d 46 04             	lea    eax,[esi+0x4]
 1001e93:	89 04 24             	mov    DWORD PTR [esp],eax
 1001e96:	e8 55 fc 00 00       	call   1011af0 <_ZNSt10shared_ptrISt11__dequeNodeIcESt15default_deleterIS1_EE3decEv>
 1001e9b:	5a                   	pop    edx
 1001e9c:	59                   	pop    ecx
 1001e9d:	6a 0c                	push   0xc
 1001e9f:	56                   	push   esi
 1001ea0:	e8 3b 1f 00 00       	call   1003de0 <_ZdlPvj>
 1001ea5:	8b 84 24 bc 00 00 00 	mov    eax,DWORD PTR [esp+0xbc]
 1001eac:	83 2b 01             	sub    DWORD PTR [ebx],0x1
 1001eaf:	83 c4 10             	add    esp,0x10
 1001eb2:	85 c0                	test   eax,eax
 1001eb4:	0f 84 09 f7 ff ff    	je     10015c3 <printUserMode+0x10a3>
 1001eba:	89 c3                	mov    ebx,eax
 1001ebc:	e9 ee f6 ff ff       	jmp    10015af <printUserMode+0x108f>
 1001ec1:	8b 73 04             	mov    esi,DWORD PTR [ebx+0x4]
 1001ec4:	85 f6                	test   esi,esi
 1001ec6:	0f 84 af f6 ff ff    	je     100157b <printUserMode+0x105b>
 1001ecc:	8d 46 08             	lea    eax,[esi+0x8]
 1001ecf:	83 ec 0c             	sub    esp,0xc
 1001ed2:	50                   	push   eax
 1001ed3:	e8 18 fc 00 00       	call   1011af0 <_ZNSt10shared_ptrISt11__dequeNodeIcESt15default_deleterIS1_EE3decEv>
 1001ed8:	8d 46 04             	lea    eax,[esi+0x4]
 1001edb:	89 04 24             	mov    DWORD PTR [esp],eax
 1001ede:	e8 0d fc 00 00       	call   1011af0 <_ZNSt10shared_ptrISt11__dequeNodeIcESt15default_deleterIS1_EE3decEv>
 1001ee3:	5f                   	pop    edi
 1001ee4:	5d                   	pop    ebp
 1001ee5:	6a 0c                	push   0xc
 1001ee7:	56                   	push   esi
 1001ee8:	e8 f3 1e 00 00       	call   1003de0 <_ZdlPvj>
 1001eed:	8b 84 24 c0 00 00 00 	mov    eax,DWORD PTR [esp+0xc0]
 1001ef4:	83 2b 01             	sub    DWORD PTR [ebx],0x1
 1001ef7:	83 c4 10             	add    esp,0x10
 1001efa:	85 c0                	test   eax,eax
 1001efc:	0f 84 92 f6 ff ff    	je     1001594 <printUserMode+0x1074>
 1001f02:	89 c3                	mov    ebx,eax
 1001f04:	e9 77 f6 ff ff       	jmp    1001580 <printUserMode+0x1060>
 1001f09:	8b 6b 04             	mov    ebp,DWORD PTR [ebx+0x4]
 1001f0c:	85 ed                	test   ebp,ebp
 1001f0e:	0f 84 4d eb ff ff    	je     1000a61 <printUserMode+0x541>
 1001f14:	8b 4d 04             	mov    ecx,DWORD PTR [ebp+0x4]
 1001f17:	8b 45 00             	mov    eax,DWORD PTR [ebp+0x0]
 1001f1a:	85 c9                	test   ecx,ecx
 1001f1c:	0f 84 70 12 00 00    	je     1003192 <printUserMode+0x2c72>
 1001f22:	31 c9                	xor    ecx,ecx
 1001f24:	89 5c 24 10          	mov    DWORD PTR [esp+0x10],ebx
 1001f28:	89 6c 24 0c          	mov    DWORD PTR [esp+0xc],ebp
 1001f2c:	89 cf                	mov    edi,ecx
 1001f2e:	eb 16                	jmp    1001f46 <printUserMode+0x1a26>
 1001f30:	8b 44 24 0c          	mov    eax,DWORD PTR [esp+0xc]
 1001f34:	8b 00                	mov    eax,DWORD PTR [eax]
 1001f36:	8b 4c 24 0c          	mov    ecx,DWORD PTR [esp+0xc]
 1001f3a:	83 c7 01             	add    edi,0x1
 1001f3d:	39 79 04             	cmp    DWORD PTR [ecx+0x4],edi
 1001f40:	0f 86 46 12 00 00    	jbe    100318c <printUserMode+0x2c6c>
 1001f46:	8d 2c f8             	lea    ebp,[eax+edi*8]
 1001f49:	8b 5d 04             	mov    ebx,DWORD PTR [ebp+0x4]
 1001f4c:	85 db                	test   ebx,ebx
 1001f4e:	74 e6                	je     1001f36 <printUserMode+0x1a16>
 1001f50:	8b 0b                	mov    ecx,DWORD PTR [ebx]
 1001f52:	83 f9 01             	cmp    ecx,0x1
 1001f55:	0f 84 03 0b 00 00    	je     1002a5e <printUserMode+0x253e>
 1001f5b:	83 e9 01             	sub    ecx,0x1
 1001f5e:	89 0b                	mov    DWORD PTR [ebx],ecx
 1001f60:	8b 2b                	mov    ebp,DWORD PTR [ebx]
 1001f62:	85 ed                	test   ebp,ebp
 1001f64:	75 ca                	jne    1001f30 <printUserMode+0x1a10>
 1001f66:	83 ec 08             	sub    esp,0x8
 1001f69:	6a 0c                	push   0xc
 1001f6b:	53                   	push   ebx
 1001f6c:	e8 6f 1e 00 00       	call   1003de0 <_ZdlPvj>
 1001f71:	8b 44 24 1c          	mov    eax,DWORD PTR [esp+0x1c]
 1001f75:	83 c4 10             	add    esp,0x10
 1001f78:	8b 00                	mov    eax,DWORD PTR [eax]
 1001f7a:	eb ba                	jmp    1001f36 <printUserMode+0x1a16>
 1001f7c:	8b 7b 04             	mov    edi,DWORD PTR [ebx+0x4]
 1001f7f:	85 ff                	test   edi,edi
 1001f81:	0f 84 41 f5 ff ff    	je     10014c8 <printUserMode+0xfa8>
 1001f87:	8b 57 04             	mov    edx,DWORD PTR [edi+0x4]
 1001f8a:	8b 07                	mov    eax,DWORD PTR [edi]
 1001f8c:	85 d2                	test   edx,edx
 1001f8e:	74 3c                	je     1001fcc <printUserMode+0x1aac>
 1001f90:	31 ed                	xor    ebp,ebp
 1001f92:	89 5c 24 0c          	mov    DWORD PTR [esp+0xc],ebx
 1001f96:	89 fa                	mov    edx,edi
 1001f98:	8d 34 e8             	lea    esi,[eax+ebp*8]
 1001f9b:	8b 5e 04             	mov    ebx,DWORD PTR [esi+0x4]
 1001f9e:	85 db                	test   ebx,ebx
 1001fa0:	74 1c                	je     1001fbe <printUserMode+0x1a9e>
 1001fa2:	8b 03                	mov    eax,DWORD PTR [ebx]
 1001fa4:	83 f8 01             	cmp    eax,0x1
 1001fa7:	0f 84 76 09 00 00    	je     1002923 <printUserMode+0x2403>
 1001fad:	83 e8 01             	sub    eax,0x1
 1001fb0:	89 03                	mov    DWORD PTR [ebx],eax
 1001fb2:	8b 03                	mov    eax,DWORD PTR [ebx]
 1001fb4:	85 c0                	test   eax,eax
 1001fb6:	0f 84 30 03 00 00    	je     10022ec <printUserMode+0x1dcc>
 1001fbc:	8b 02                	mov    eax,DWORD PTR [edx]
 1001fbe:	83 c5 01             	add    ebp,0x1
 1001fc1:	39 6a 04             	cmp    DWORD PTR [edx+0x4],ebp
 1001fc4:	77 d2                	ja     1001f98 <printUserMode+0x1a78>
 1001fc6:	8b 5c 24 0c          	mov    ebx,DWORD PTR [esp+0xc]
 1001fca:	89 d7                	mov    edi,edx
 1001fcc:	85 c0                	test   eax,eax
 1001fce:	c7 47 04 00 00 00 00 	mov    DWORD PTR [edi+0x4],0x0
 1001fd5:	c7 47 08 00 00 00 00 	mov    DWORD PTR [edi+0x8],0x0
 1001fdc:	74 0c                	je     1001fea <printUserMode+0x1aca>
 1001fde:	83 ec 0c             	sub    esp,0xc
 1001fe1:	50                   	push   eax
 1001fe2:	e8 19 1e 00 00       	call   1003e00 <_ZdaPv>
 1001fe7:	83 c4 10             	add    esp,0x10
 1001fea:	83 ec 08             	sub    esp,0x8
 1001fed:	6a 0c                	push   0xc
 1001fef:	57                   	push   edi
 1001ff0:	e8 eb 1d 00 00       	call   1003de0 <_ZdlPvj>
 1001ff5:	8b 44 24 70          	mov    eax,DWORD PTR [esp+0x70]
 1001ff9:	83 2b 01             	sub    DWORD PTR [ebx],0x1
 1001ffc:	83 c4 10             	add    esp,0x10
 1001fff:	85 c0                	test   eax,eax
 1002001:	0f 84 da f4 ff ff    	je     10014e1 <printUserMode+0xfc1>
 1002007:	89 c3                	mov    ebx,eax
 1002009:	e9 bf f4 ff ff       	jmp    10014cd <printUserMode+0xfad>
 100200e:	8b 7b 04             	mov    edi,DWORD PTR [ebx+0x4]
 1002011:	85 ff                	test   edi,edi
 1002013:	0f 84 83 f4 ff ff    	je     100149c <printUserMode+0xf7c>
 1002019:	8b 57 04             	mov    edx,DWORD PTR [edi+0x4]
 100201c:	8b 07                	mov    eax,DWORD PTR [edi]
 100201e:	85 d2                	test   edx,edx
 1002020:	74 3c                	je     100205e <printUserMode+0x1b3e>
 1002022:	31 ed                	xor    ebp,ebp
 1002024:	89 5c 24 0c          	mov    DWORD PTR [esp+0xc],ebx
 1002028:	89 fa                	mov    edx,edi
 100202a:	8d 34 e8             	lea    esi,[eax+ebp*8]
 100202d:	8b 5e 04             	mov    ebx,DWORD PTR [esi+0x4]
 1002030:	85 db                	test   ebx,ebx
 1002032:	74 1c                	je     1002050 <printUserMode+0x1b30>
 1002034:	8b 03                	mov    eax,DWORD PTR [ebx]
 1002036:	83 f8 01             	cmp    eax,0x1
 1002039:	0f 84 75 09 00 00    	je     10029b4 <printUserMode+0x2494>
 100203f:	83 e8 01             	sub    eax,0x1
 1002042:	89 03                	mov    DWORD PTR [ebx],eax
 1002044:	8b 33                	mov    esi,DWORD PTR [ebx]
 1002046:	85 f6                	test   esi,esi
 1002048:	0f 84 bb 02 00 00    	je     1002309 <printUserMode+0x1de9>
 100204e:	8b 02                	mov    eax,DWORD PTR [edx]
 1002050:	83 c5 01             	add    ebp,0x1
 1002053:	39 6a 04             	cmp    DWORD PTR [edx+0x4],ebp
 1002056:	77 d2                	ja     100202a <printUserMode+0x1b0a>
 1002058:	8b 5c 24 0c          	mov    ebx,DWORD PTR [esp+0xc]
 100205c:	89 d7                	mov    edi,edx
 100205e:	85 c0                	test   eax,eax
 1002060:	c7 47 04 00 00 00 00 	mov    DWORD PTR [edi+0x4],0x0
 1002067:	c7 47 08 00 00 00 00 	mov    DWORD PTR [edi+0x8],0x0
 100206e:	74 0c                	je     100207c <printUserMode+0x1b5c>
 1002070:	83 ec 0c             	sub    esp,0xc
 1002073:	50                   	push   eax
 1002074:	e8 87 1d 00 00       	call   1003e00 <_ZdaPv>
 1002079:	83 c4 10             	add    esp,0x10
 100207c:	83 ec 08             	sub    esp,0x8
 100207f:	6a 0c                	push   0xc
 1002081:	57                   	push   edi
 1002082:	e8 59 1d 00 00       	call   1003de0 <_ZdlPvj>
 1002087:	8b 44 24 74          	mov    eax,DWORD PTR [esp+0x74]
 100208b:	83 2b 01             	sub    DWORD PTR [ebx],0x1
 100208e:	83 c4 10             	add    esp,0x10
 1002091:	85 c0                	test   eax,eax
 1002093:	0f 84 1c f4 ff ff    	je     10014b5 <printUserMode+0xf95>
 1002099:	89 c3                	mov    ebx,eax
 100209b:	e9 01 f4 ff ff       	jmp    10014a1 <printUserMode+0xf81>
 10020a0:	8b 73 04             	mov    esi,DWORD PTR [ebx+0x4]
 10020a3:	85 f6                	test   esi,esi
 10020a5:	0f 84 c5 f3 ff ff    	je     1001470 <printUserMode+0xf50>
 10020ab:	8d 46 08             	lea    eax,[esi+0x8]
 10020ae:	83 ec 0c             	sub    esp,0xc
 10020b1:	50                   	push   eax
 10020b2:	e8 49 f9 00 00       	call   1011a00 <_ZNSt10shared_ptrISt11__dequeNodeIjESt15default_deleterIS1_EE3decEv>
 10020b7:	8d 46 04             	lea    eax,[esi+0x4]
 10020ba:	89 04 24             	mov    DWORD PTR [esp],eax
 10020bd:	e8 3e f9 00 00       	call   1011a00 <_ZNSt10shared_ptrISt11__dequeNodeIjESt15default_deleterIS1_EE3decEv>
 10020c2:	5f                   	pop    edi
 10020c3:	5d                   	pop    ebp
 10020c4:	6a 0c                	push   0xc
 10020c6:	56                   	push   esi
 10020c7:	e8 14 1d 00 00       	call   1003de0 <_ZdlPvj>
 10020cc:	8b 84 24 80 00 00 00 	mov    eax,DWORD PTR [esp+0x80]
 10020d3:	83 2b 01             	sub    DWORD PTR [ebx],0x1
 10020d6:	83 c4 10             	add    esp,0x10
 10020d9:	85 c0                	test   eax,eax
 10020db:	0f 84 a8 f3 ff ff    	je     1001489 <printUserMode+0xf69>
 10020e1:	89 c3                	mov    ebx,eax
 10020e3:	e9 8d f3 ff ff       	jmp    1001475 <printUserMode+0xf55>
 10020e8:	8b 73 04             	mov    esi,DWORD PTR [ebx+0x4]
 10020eb:	85 f6                	test   esi,esi
 10020ed:	0f 84 51 f3 ff ff    	je     1001444 <printUserMode+0xf24>
 10020f3:	8d 46 08             	lea    eax,[esi+0x8]
 10020f6:	83 ec 0c             	sub    esp,0xc
 10020f9:	50                   	push   eax
 10020fa:	e8 01 f9 00 00       	call   1011a00 <_ZNSt10shared_ptrISt11__dequeNodeIjESt15default_deleterIS1_EE3decEv>
 10020ff:	8d 46 04             	lea    eax,[esi+0x4]
 1002102:	89 04 24             	mov    DWORD PTR [esp],eax
 1002105:	e8 f6 f8 00 00       	call   1011a00 <_ZNSt10shared_ptrISt11__dequeNodeIjESt15default_deleterIS1_EE3decEv>
 100210a:	58                   	pop    eax
 100210b:	5a                   	pop    edx
 100210c:	6a 0c                	push   0xc
 100210e:	56                   	push   esi
 100210f:	e8 cc 1c 00 00       	call   1003de0 <_ZdlPvj>
 1002114:	8b 84 24 84 00 00 00 	mov    eax,DWORD PTR [esp+0x84]
 100211b:	83 2b 01             	sub    DWORD PTR [ebx],0x1
 100211e:	83 c4 10             	add    esp,0x10
 1002121:	85 c0                	test   eax,eax
 1002123:	0f 84 34 f3 ff ff    	je     100145d <printUserMode+0xf3d>
 1002129:	89 c3                	mov    ebx,eax
 100212b:	e9 19 f3 ff ff       	jmp    1001449 <printUserMode+0xf29>
 1002130:	8b 5e 04             	mov    ebx,DWORD PTR [esi+0x4]
 1002133:	85 db                	test   ebx,ebx
 1002135:	0f 84 06 f6 ff ff    	je     1001741 <printUserMode+0x1221>
 100213b:	8d 43 08             	lea    eax,[ebx+0x8]
 100213e:	83 ec 0c             	sub    esp,0xc
 1002141:	50                   	push   eax
 1002142:	e8 a9 f9 00 00       	call   1011af0 <_ZNSt10shared_ptrISt11__dequeNodeIcESt15default_deleterIS1_EE3decEv>
 1002147:	8d 43 04             	lea    eax,[ebx+0x4]
 100214a:	89 04 24             	mov    DWORD PTR [esp],eax
 100214d:	e8 9e f9 00 00       	call   1011af0 <_ZNSt10shared_ptrISt11__dequeNodeIcESt15default_deleterIS1_EE3decEv>
 1002152:	58                   	pop    eax
 1002153:	5a                   	pop    edx
 1002154:	6a 0c                	push   0xc
 1002156:	53                   	push   ebx
 1002157:	e8 84 1c 00 00       	call   1003de0 <_ZdlPvj>
 100215c:	8b 84 24 bc 00 00 00 	mov    eax,DWORD PTR [esp+0xbc]
 1002163:	83 2e 01             	sub    DWORD PTR [esi],0x1
 1002166:	83 c4 10             	add    esp,0x10
 1002169:	85 c0                	test   eax,eax
 100216b:	0f 84 df f5 ff ff    	je     1001750 <printUserMode+0x1230>
 1002171:	89 c6                	mov    esi,eax
 1002173:	e9 ce f5 ff ff       	jmp    1001746 <printUserMode+0x1226>
 1002178:	85 ed                	test   ebp,ebp
 100217a:	0f 84 91 f5 ff ff    	je     1001711 <printUserMode+0x11f1>
 1002180:	8d 45 08             	lea    eax,[ebp+0x8]
 1002183:	83 ec 0c             	sub    esp,0xc
 1002186:	50                   	push   eax
 1002187:	e8 64 f9 00 00       	call   1011af0 <_ZNSt10shared_ptrISt11__dequeNodeIcESt15default_deleterIS1_EE3decEv>
 100218c:	8d 45 04             	lea    eax,[ebp+0x4]
 100218f:	89 04 24             	mov    DWORD PTR [esp],eax
 1002192:	e8 59 f9 00 00       	call   1011af0 <_ZNSt10shared_ptrISt11__dequeNodeIcESt15default_deleterIS1_EE3decEv>
 1002197:	5e                   	pop    esi
 1002198:	58                   	pop    eax
 1002199:	6a 0c                	push   0xc
 100219b:	55                   	push   ebp
 100219c:	e8 3f 1c 00 00       	call   1003de0 <_ZdlPvj>
 10021a1:	8b 84 24 c0 00 00 00 	mov    eax,DWORD PTR [esp+0xc0]
 10021a8:	83 2b 01             	sub    DWORD PTR [ebx],0x1
 10021ab:	83 c4 10             	add    esp,0x10
 10021ae:	85 c0                	test   eax,eax
 10021b0:	0f 84 6a f5 ff ff    	je     1001720 <printUserMode+0x1200>
 10021b6:	89 c3                	mov    ebx,eax
 10021b8:	e9 59 f5 ff ff       	jmp    1001716 <printUserMode+0x11f6>
 10021bd:	8b 5e 04             	mov    ebx,DWORD PTR [esi+0x4]
 10021c0:	85 db                	test   ebx,ebx
 10021c2:	0f 84 4f f7 ff ff    	je     1001917 <printUserMode+0x13f7>
 10021c8:	8d 43 08             	lea    eax,[ebx+0x8]
 10021cb:	83 ec 0c             	sub    esp,0xc
 10021ce:	50                   	push   eax
 10021cf:	e8 2c f8 00 00       	call   1011a00 <_ZNSt10shared_ptrISt11__dequeNodeIjESt15default_deleterIS1_EE3decEv>
 10021d4:	8d 43 04             	lea    eax,[ebx+0x4]
 10021d7:	89 04 24             	mov    DWORD PTR [esp],eax
 10021da:	e8 21 f8 00 00       	call   1011a00 <_ZNSt10shared_ptrISt11__dequeNodeIjESt15default_deleterIS1_EE3decEv>
 10021df:	58                   	pop    eax
 10021e0:	5a                   	pop    edx
 10021e1:	6a 0c                	push   0xc
 10021e3:	53                   	push   ebx
 10021e4:	e8 f7 1b 00 00       	call   1003de0 <_ZdlPvj>
 10021e9:	8b 84 24 80 00 00 00 	mov    eax,DWORD PTR [esp+0x80]
 10021f0:	83 2e 01             	sub    DWORD PTR [esi],0x1
 10021f3:	83 c4 10             	add    esp,0x10
 10021f6:	85 c0                	test   eax,eax
 10021f8:	0f 84 28 f7 ff ff    	je     1001926 <printUserMode+0x1406>
 10021fe:	89 c6                	mov    esi,eax
 1002200:	e9 17 f7 ff ff       	jmp    100191c <printUserMode+0x13fc>
 1002205:	8b 4c 24 70          	mov    ecx,DWORD PTR [esp+0x70]
 1002209:	8b 54 24 74          	mov    edx,DWORD PTR [esp+0x74]
 100220d:	85 c9                	test   ecx,ecx
 100220f:	0f 84 de 01 00 00    	je     10023f3 <printUserMode+0x1ed3>
 1002215:	85 d2                	test   edx,edx
 1002217:	8b 49 04             	mov    ecx,DWORD PTR [ecx+0x4]
 100221a:	0f 84 01 12 00 00    	je     1003421 <printUserMode+0x2f01>
 1002220:	39 4a 04             	cmp    DWORD PTR [edx+0x4],ecx
 1002223:	0f 84 d4 01 00 00    	je     10023fd <printUserMode+0x1edd>
 1002229:	8b 5a 04             	mov    ebx,DWORD PTR [edx+0x4]
 100222c:	85 db                	test   ebx,ebx
 100222e:	0f 85 b3 f1 ff ff    	jne    10013e7 <printUserMode+0xec7>
 1002234:	8b 44 24 78          	mov    eax,DWORD PTR [esp+0x78]
 1002238:	83 e8 01             	sub    eax,0x1
 100223b:	83 ec 0c             	sub    esp,0xc
 100223e:	89 84 24 84 00 00 00 	mov    DWORD PTR [esp+0x84],eax
 1002245:	6a 0f                	push   0xf
 1002247:	e8 b4 b8 00 00       	call   100db00 <_ZN3VGA9backspaceEc>
 100224c:	83 c4 10             	add    esp,0x10
 100224f:	e9 80 eb ff ff       	jmp    1000dd4 <printUserMode+0x8b4>
 1002254:	8b 4b 04             	mov    ecx,DWORD PTR [ebx+0x4]
 1002257:	85 c9                	test   ecx,ecx
 1002259:	0f 84 e5 f5 ff ff    	je     1001844 <printUserMode+0x1324>
 100225f:	8b 41 04             	mov    eax,DWORD PTR [ecx+0x4]
 1002262:	8b 11                	mov    edx,DWORD PTR [ecx]
 1002264:	85 c0                	test   eax,eax
 1002266:	0f 84 be 0f 00 00    	je     100322a <printUserMode+0x2d0a>
 100226c:	31 c0                	xor    eax,eax
 100226e:	89 6c 24 38          	mov    DWORD PTR [esp+0x38],ebp
 1002272:	89 74 24 3c          	mov    DWORD PTR [esp+0x3c],esi
 1002276:	89 5c 24 40          	mov    DWORD PTR [esp+0x40],ebx
 100227a:	89 cd                	mov    ebp,ecx
 100227c:	89 c6                	mov    esi,eax
 100227e:	eb 0f                	jmp    100228f <printUserMode+0x1d6f>
 1002280:	8b 55 00             	mov    edx,DWORD PTR [ebp+0x0]
 1002283:	83 c6 01             	add    esi,0x1
 1002286:	39 75 04             	cmp    DWORD PTR [ebp+0x4],esi
 1002289:	0f 86 8d 0f 00 00    	jbe    100321c <printUserMode+0x2cfc>
 100228f:	8d 0c f2             	lea    ecx,[edx+esi*8]
 1002292:	8b 59 04             	mov    ebx,DWORD PTR [ecx+0x4]
 1002295:	85 db                	test   ebx,ebx
 1002297:	74 ea                	je     1002283 <printUserMode+0x1d63>
 1002299:	8b 03                	mov    eax,DWORD PTR [ebx]
 100229b:	83 f8 01             	cmp    eax,0x1
 100229e:	0f 84 fe 08 00 00    	je     1002ba2 <printUserMode+0x2682>
 10022a4:	83 e8 01             	sub    eax,0x1
 10022a7:	89 03                	mov    DWORD PTR [ebx],eax
 10022a9:	8b 03                	mov    eax,DWORD PTR [ebx]
 10022ab:	85 c0                	test   eax,eax
 10022ad:	75 d1                	jne    1002280 <printUserMode+0x1d60>
 10022af:	83 ec 08             	sub    esp,0x8
 10022b2:	6a 0c                	push   0xc
 10022b4:	53                   	push   ebx
 10022b5:	e8 26 1b 00 00       	call   1003de0 <_ZdlPvj>
 10022ba:	8b 55 00             	mov    edx,DWORD PTR [ebp+0x0]
 10022bd:	83 c4 10             	add    esp,0x10
 10022c0:	eb c1                	jmp    1002283 <printUserMode+0x1d63>
 10022c2:	8b 03                	mov    eax,DWORD PTR [ebx]
 10022c4:	e9 28 f6 ff ff       	jmp    10018f1 <printUserMode+0x13d1>
 10022c9:	83 ec 0c             	sub    esp,0xc
 10022cc:	53                   	push   ebx
 10022cd:	ff d2                	call   edx
 10022cf:	83 c4 10             	add    esp,0x10
 10022d2:	e9 3b ea ff ff       	jmp    1000d12 <printUserMode+0x7f2>
 10022d7:	0f b6 c3             	movzx  eax,bl
 10022da:	8b 9c 84 c0 04 00 00 	mov    ebx,DWORD PTR [esp+eax*4+0x4c0]
 10022e1:	83 fb ff             	cmp    ebx,0xffffffff
 10022e4:	0f 44 dd             	cmove  ebx,ebp
 10022e7:	e9 0c ec ff ff       	jmp    1000ef8 <printUserMode+0x9d8>
 10022ec:	89 54 24 10          	mov    DWORD PTR [esp+0x10],edx
 10022f0:	83 ec 08             	sub    esp,0x8
 10022f3:	6a 0c                	push   0xc
 10022f5:	53                   	push   ebx
 10022f6:	e8 e5 1a 00 00       	call   1003de0 <_ZdlPvj>
 10022fb:	8b 54 24 20          	mov    edx,DWORD PTR [esp+0x20]
 10022ff:	83 c4 10             	add    esp,0x10
 1002302:	8b 02                	mov    eax,DWORD PTR [edx]
 1002304:	e9 b5 fc ff ff       	jmp    1001fbe <printUserMode+0x1a9e>
 1002309:	89 54 24 10          	mov    DWORD PTR [esp+0x10],edx
 100230d:	83 ec 08             	sub    esp,0x8
 1002310:	6a 0c                	push   0xc
 1002312:	53                   	push   ebx
 1002313:	e8 c8 1a 00 00       	call   1003de0 <_ZdlPvj>
 1002318:	8b 54 24 20          	mov    edx,DWORD PTR [esp+0x20]
 100231c:	83 c4 10             	add    esp,0x10
 100231f:	8b 02                	mov    eax,DWORD PTR [edx]
 1002321:	e9 2a fd ff ff       	jmp    1002050 <printUserMode+0x1b30>
 1002326:	83 ec 0c             	sub    esp,0xc
 1002329:	6a 0c                	push   0xc
 100232b:	e8 10 18 00 00       	call   1003b40 <_Znwj>
 1002330:	89 30                	mov    DWORD PTR [eax],esi
 1002332:	c7 40 04 00 00 00 00 	mov    DWORD PTR [eax+0x4],0x0
 1002339:	89 c7                	mov    edi,eax
 100233b:	c7 40 08 00 00 00 00 	mov    DWORD PTR [eax+0x8],0x0
 1002342:	c7 84 24 98 00 00 00 	mov    DWORD PTR [esp+0x98],0x0
 1002349:	00 00 00 00 
 100234d:	c7 04 24 0c 00 00 00 	mov    DWORD PTR [esp],0xc
 1002354:	e8 e7 17 00 00       	call   1003b40 <_Znwj>
 1002359:	89 78 04             	mov    DWORD PTR [eax+0x4],edi
 100235c:	89 84 24 98 00 00 00 	mov    DWORD PTR [esp+0x98],eax
 1002363:	c7 00 01 00 00 00    	mov    DWORD PTR [eax],0x1
 1002369:	8b 84 24 84 00 00 00 	mov    eax,DWORD PTR [esp+0x84]
 1002370:	83 c4 10             	add    esp,0x10
 1002373:	85 c0                	test   eax,eax
 1002375:	0f 84 18 09 00 00    	je     1002c93 <printUserMode+0x2773>
 100237b:	8b 78 04             	mov    edi,DWORD PTR [eax+0x4]
 100237e:	83 ec 0c             	sub    esp,0xc
 1002381:	8d 47 04             	lea    eax,[edi+0x4]
 1002384:	50                   	push   eax
 1002385:	e8 76 f6 00 00       	call   1011a00 <_ZNSt10shared_ptrISt11__dequeNodeIjESt15default_deleterIS1_EE3decEv>
 100238a:	8b 84 24 98 00 00 00 	mov    eax,DWORD PTR [esp+0x98]
 1002391:	83 c4 10             	add    esp,0x10
 1002394:	85 c0                	test   eax,eax
 1002396:	89 47 04             	mov    DWORD PTR [edi+0x4],eax
 1002399:	0f 84 dc 08 00 00    	je     1002c7b <printUserMode+0x275b>
 100239f:	8b 78 04             	mov    edi,DWORD PTR [eax+0x4]
 10023a2:	83 00 01             	add    DWORD PTR [eax],0x1
 10023a5:	83 ec 0c             	sub    esp,0xc
 10023a8:	8d 47 08             	lea    eax,[edi+0x8]
 10023ab:	50                   	push   eax
 10023ac:	e8 4f f6 00 00       	call   1011a00 <_ZNSt10shared_ptrISt11__dequeNodeIjESt15default_deleterIS1_EE3decEv>
 10023b1:	8b 84 24 84 00 00 00 	mov    eax,DWORD PTR [esp+0x84]
 10023b8:	83 c4 10             	add    esp,0x10
 10023bb:	85 c0                	test   eax,eax
 10023bd:	89 47 08             	mov    DWORD PTR [edi+0x8],eax
 10023c0:	74 03                	je     10023c5 <printUserMode+0x1ea5>
 10023c2:	83 00 01             	add    DWORD PTR [eax],0x1
 10023c5:	83 ec 0c             	sub    esp,0xc
 10023c8:	8d 84 24 80 00 00 00 	lea    eax,[esp+0x80]
 10023cf:	50                   	push   eax
 10023d0:	e8 2b f6 00 00       	call   1011a00 <_ZNSt10shared_ptrISt11__dequeNodeIjESt15default_deleterIS1_EE3decEv>
 10023d5:	8b 84 24 98 00 00 00 	mov    eax,DWORD PTR [esp+0x98]
 10023dc:	89 84 24 84 00 00 00 	mov    DWORD PTR [esp+0x84],eax
 10023e3:	83 c4 10             	add    esp,0x10
 10023e6:	85 c0                	test   eax,eax
 10023e8:	0f 85 30 f9 ff ff    	jne    1001d1e <printUserMode+0x17fe>
 10023ee:	e9 2e f9 ff ff       	jmp    1001d21 <printUserMode+0x1801>
 10023f3:	31 c9                	xor    ecx,ecx
 10023f5:	85 d2                	test   edx,edx
 10023f7:	0f 85 23 fe ff ff    	jne    1002220 <printUserMode+0x1d00>
 10023fd:	83 ec 0c             	sub    esp,0xc
 1002400:	8d 84 24 80 00 00 00 	lea    eax,[esp+0x80]
 1002407:	8d 5c 24 7c          	lea    ebx,[esp+0x7c]
 100240b:	50                   	push   eax
 100240c:	e8 ef f5 00 00       	call   1011a00 <_ZNSt10shared_ptrISt11__dequeNodeIjESt15default_deleterIS1_EE3decEv>
 1002411:	c7 84 24 84 00 00 00 	mov    DWORD PTR [esp+0x84],0x0
 1002418:	00 00 00 00 
 100241c:	89 1c 24             	mov    DWORD PTR [esp],ebx
 100241f:	e8 dc f5 00 00       	call   1011a00 <_ZNSt10shared_ptrISt11__dequeNodeIjESt15default_deleterIS1_EE3decEv>
 1002424:	8b 84 24 84 00 00 00 	mov    eax,DWORD PTR [esp+0x84]
 100242b:	89 84 24 80 00 00 00 	mov    DWORD PTR [esp+0x80],eax
 1002432:	83 c4 10             	add    esp,0x10
 1002435:	85 c0                	test   eax,eax
 1002437:	0f 84 f7 fd ff ff    	je     1002234 <printUserMode+0x1d14>
 100243d:	8b 58 04             	mov    ebx,DWORD PTR [eax+0x4]
 1002440:	83 00 01             	add    DWORD PTR [eax],0x1
 1002443:	85 db                	test   ebx,ebx
 1002445:	0f 84 e9 fd ff ff    	je     1002234 <printUserMode+0x1d14>
 100244b:	8d 43 04             	lea    eax,[ebx+0x4]
 100244e:	83 ec 0c             	sub    esp,0xc
 1002451:	50                   	push   eax
 1002452:	e8 a9 f5 00 00       	call   1011a00 <_ZNSt10shared_ptrISt11__dequeNodeIjESt15default_deleterIS1_EE3decEv>
 1002457:	8b 84 24 80 00 00 00 	mov    eax,DWORD PTR [esp+0x80]
 100245e:	83 c4 10             	add    esp,0x10
 1002461:	c7 43 04 00 00 00 00 	mov    DWORD PTR [ebx+0x4],0x0
 1002468:	85 c0                	test   eax,eax
 100246a:	0f 84 36 f5 ff ff    	je     10019a6 <printUserMode+0x1486>
 1002470:	8b 58 04             	mov    ebx,DWORD PTR [eax+0x4]
 1002473:	83 ec 0c             	sub    esp,0xc
 1002476:	8d 43 08             	lea    eax,[ebx+0x8]
 1002479:	50                   	push   eax
 100247a:	e8 81 f5 00 00       	call   1011a00 <_ZNSt10shared_ptrISt11__dequeNodeIjESt15default_deleterIS1_EE3decEv>
 100247f:	8b 94 24 84 00 00 00 	mov    edx,DWORD PTR [esp+0x84]
 1002486:	83 c4 10             	add    esp,0x10
 1002489:	c7 43 08 00 00 00 00 	mov    DWORD PTR [ebx+0x8],0x0
 1002490:	85 d2                	test   edx,edx
 1002492:	0f 84 9c fd ff ff    	je     1002234 <printUserMode+0x1d14>
 1002498:	e9 8c fd ff ff       	jmp    1002229 <printUserMode+0x1d09>
 100249d:	8d 76 00             	lea    esi,[esi+0x0]
 10024a0:	8b 07                	mov    eax,DWORD PTR [edi]
 10024a2:	8b 48 0c             	mov    ecx,DWORD PTR [eax+0xc]
 10024a5:	81 f9 70 12 01 01    	cmp    ecx,0x1011270
 10024ab:	0f 85 10 11 00 00    	jne    10035c1 <printUserMode+0x30a1>
 10024b1:	85 d2                	test   edx,edx
 10024b3:	74 18                	je     10024cd <printUserMode+0x1fad>
 10024b5:	31 db                	xor    ebx,ebx
 10024b7:	eb 02                	jmp    10024bb <printUserMode+0x1f9b>
 10024b9:	8b 07                	mov    eax,DWORD PTR [edi]
 10024bb:	83 ec 0c             	sub    esp,0xc
 10024be:	83 c3 01             	add    ebx,0x1
 10024c1:	57                   	push   edi
 10024c2:	ff 50 14             	call   DWORD PTR [eax+0x14]
 10024c5:	83 c4 10             	add    esp,0x10
 10024c8:	39 5f 08             	cmp    DWORD PTR [edi+0x8],ebx
 10024cb:	77 ec                	ja     10024b9 <printUserMode+0x1f99>
 10024cd:	c7 47 10 00 00 00 00 	mov    DWORD PTR [edi+0x10],0x0
 10024d4:	c7 47 14 00 00 00 00 	mov    DWORD PTR [edi+0x14],0x0
 10024db:	e9 87 f8 ff ff       	jmp    1001d67 <printUserMode+0x1847>
 10024e0:	89 7c 24 74          	mov    DWORD PTR [esp+0x74],edi
 10024e4:	e9 23 f4 ff ff       	jmp    100190c <printUserMode+0x13ec>
 10024e9:	8b 5e 04             	mov    ebx,DWORD PTR [esi+0x4]
 10024ec:	85 db                	test   ebx,ebx
 10024ee:	0f 84 54 03 00 00    	je     1002848 <printUserMode+0x2328>
 10024f4:	31 c0                	xor    eax,eax
 10024f6:	89 74 24 10          	mov    DWORD PTR [esp+0x10],esi
 10024fa:	89 7c 24 24          	mov    DWORD PTR [esp+0x24],edi
 10024fe:	89 6c 24 28          	mov    DWORD PTR [esp+0x28],ebp
 1002502:	89 4c 24 2c          	mov    DWORD PTR [esp+0x2c],ecx
 1002506:	89 c6                	mov    esi,eax
 1002508:	eb 16                	jmp    1002520 <printUserMode+0x2000>
 100250a:	8b 44 24 10          	mov    eax,DWORD PTR [esp+0x10]
 100250e:	8b 10                	mov    edx,DWORD PTR [eax]
 1002510:	8b 44 24 10          	mov    eax,DWORD PTR [esp+0x10]
 1002514:	83 c6 01             	add    esi,0x1
 1002517:	39 70 04             	cmp    DWORD PTR [eax+0x4],esi
 100251a:	0f 86 1a 03 00 00    	jbe    100283a <printUserMode+0x231a>
 1002520:	8d 04 f2             	lea    eax,[edx+esi*8]
 1002523:	8b 58 04             	mov    ebx,DWORD PTR [eax+0x4]
 1002526:	89 44 24 20          	mov    DWORD PTR [esp+0x20],eax
 100252a:	85 db                	test   ebx,ebx
 100252c:	74 e2                	je     1002510 <printUserMode+0x1ff0>
 100252e:	8b 03                	mov    eax,DWORD PTR [ebx]
 1002530:	83 f8 01             	cmp    eax,0x1
 1002533:	0f 84 34 02 00 00    	je     100276d <printUserMode+0x224d>
 1002539:	83 e8 01             	sub    eax,0x1
 100253c:	89 03                	mov    DWORD PTR [ebx],eax
 100253e:	8b 3b                	mov    edi,DWORD PTR [ebx]
 1002540:	85 ff                	test   edi,edi
 1002542:	75 c6                	jne    100250a <printUserMode+0x1fea>
 1002544:	83 ec 08             	sub    esp,0x8
 1002547:	6a 0c                	push   0xc
 1002549:	53                   	push   ebx
 100254a:	e8 91 18 00 00       	call   1003de0 <_ZdlPvj>
 100254f:	8b 44 24 20          	mov    eax,DWORD PTR [esp+0x20]
 1002553:	83 c4 10             	add    esp,0x10
 1002556:	8b 10                	mov    edx,DWORD PTR [eax]
 1002558:	eb b6                	jmp    1002510 <printUserMode+0x1ff0>
 100255a:	85 ed                	test   ebp,ebp
 100255c:	0f 84 8f f3 ff ff    	je     10018f1 <printUserMode+0x13d1>
 1002562:	8d 45 08             	lea    eax,[ebp+0x8]
 1002565:	83 ec 0c             	sub    esp,0xc
 1002568:	50                   	push   eax
 1002569:	e8 92 f4 00 00       	call   1011a00 <_ZNSt10shared_ptrISt11__dequeNodeIjESt15default_deleterIS1_EE3decEv>
 100256e:	8d 45 04             	lea    eax,[ebp+0x4]
 1002571:	89 04 24             	mov    DWORD PTR [esp],eax
 1002574:	e8 87 f4 00 00       	call   1011a00 <_ZNSt10shared_ptrISt11__dequeNodeIjESt15default_deleterIS1_EE3decEv>
 1002579:	5e                   	pop    esi
 100257a:	58                   	pop    eax
 100257b:	6a 0c                	push   0xc
 100257d:	55                   	push   ebp
 100257e:	e8 5d 18 00 00       	call   1003de0 <_ZdlPvj>
 1002583:	8b 84 24 84 00 00 00 	mov    eax,DWORD PTR [esp+0x84]
 100258a:	83 2b 01             	sub    DWORD PTR [ebx],0x1
 100258d:	83 c4 10             	add    esp,0x10
 1002590:	85 c0                	test   eax,eax
 1002592:	0f 84 68 f3 ff ff    	je     1001900 <printUserMode+0x13e0>
 1002598:	89 c3                	mov    ebx,eax
 100259a:	e9 57 f3 ff ff       	jmp    10018f6 <printUserMode+0x13d6>
 100259f:	8b 4b 04             	mov    ecx,DWORD PTR [ebx+0x4]
 10025a2:	85 c9                	test   ecx,ecx
 10025a4:	89 4c 24 20          	mov    DWORD PTR [esp+0x20],ecx
 10025a8:	0f 84 3c f5 ff ff    	je     1001aea <printUserMode+0x15ca>
 10025ae:	8b 51 04             	mov    edx,DWORD PTR [ecx+0x4]
 10025b1:	8b 01                	mov    eax,DWORD PTR [ecx]
 10025b3:	85 d2                	test   edx,edx
 10025b5:	0f 84 81 0e 00 00    	je     100343c <printUserMode+0x2f1c>
 10025bb:	31 c9                	xor    ecx,ecx
 10025bd:	89 74 24 44          	mov    DWORD PTR [esp+0x44],esi
 10025c1:	89 6c 24 40          	mov    DWORD PTR [esp+0x40],ebp
 10025c5:	89 5c 24 48          	mov    DWORD PTR [esp+0x48],ebx
 10025c9:	89 ce                	mov    esi,ecx
 10025cb:	eb 16                	jmp    10025e3 <printUserMode+0x20c3>
 10025cd:	8b 44 24 20          	mov    eax,DWORD PTR [esp+0x20]
 10025d1:	8b 00                	mov    eax,DWORD PTR [eax]
 10025d3:	8b 4c 24 20          	mov    ecx,DWORD PTR [esp+0x20]
 10025d7:	83 c6 01             	add    esi,0x1
 10025da:	39 71 04             	cmp    DWORD PTR [ecx+0x4],esi
 10025dd:	0f 86 4d 0e 00 00    	jbe    1003430 <printUserMode+0x2f10>
 10025e3:	8d 2c f0             	lea    ebp,[eax+esi*8]
 10025e6:	8b 7d 04             	mov    edi,DWORD PTR [ebp+0x4]
 10025e9:	85 ff                	test   edi,edi
 10025eb:	74 e6                	je     10025d3 <printUserMode+0x20b3>
 10025ed:	8b 17                	mov    edx,DWORD PTR [edi]
 10025ef:	83 fa 01             	cmp    edx,0x1
 10025f2:	0f 84 7b 0c 00 00    	je     1003273 <printUserMode+0x2d53>
 10025f8:	83 ea 01             	sub    edx,0x1
 10025fb:	89 17                	mov    DWORD PTR [edi],edx
 10025fd:	8b 07                	mov    eax,DWORD PTR [edi]
 10025ff:	85 c0                	test   eax,eax
 1002601:	75 ca                	jne    10025cd <printUserMode+0x20ad>
 1002603:	83 ec 08             	sub    esp,0x8
 1002606:	6a 0c                	push   0xc
 1002608:	57                   	push   edi
 1002609:	e8 d2 17 00 00       	call   1003de0 <_ZdlPvj>
 100260e:	8b 44 24 30          	mov    eax,DWORD PTR [esp+0x30]
 1002612:	83 c4 10             	add    esp,0x10
 1002615:	8b 00                	mov    eax,DWORD PTR [eax]
 1002617:	eb ba                	jmp    10025d3 <printUserMode+0x20b3>
 1002619:	83 ec 0c             	sub    esp,0xc
 100261c:	6a 0c                	push   0xc
 100261e:	e8 1d 15 00 00       	call   1003b40 <_Znwj>
 1002623:	88 18                	mov    BYTE PTR [eax],bl
 1002625:	c7 40 04 00 00 00 00 	mov    DWORD PTR [eax+0x4],0x0
 100262c:	89 c7                	mov    edi,eax
 100262e:	c7 40 08 00 00 00 00 	mov    DWORD PTR [eax+0x8],0x0
 1002635:	c7 84 24 98 00 00 00 	mov    DWORD PTR [esp+0x98],0x0
 100263c:	00 00 00 00 
 1002640:	c7 04 24 0c 00 00 00 	mov    DWORD PTR [esp],0xc
 1002647:	e8 f4 14 00 00       	call   1003b40 <_Znwj>
 100264c:	89 84 24 98 00 00 00 	mov    DWORD PTR [esp+0x98],eax
 1002653:	89 78 04             	mov    DWORD PTR [eax+0x4],edi
 1002656:	c7 00 01 00 00 00    	mov    DWORD PTR [eax],0x1
 100265c:	8b 84 24 c0 00 00 00 	mov    eax,DWORD PTR [esp+0xc0]
 1002663:	83 c4 10             	add    esp,0x10
 1002666:	85 c0                	test   eax,eax
 1002668:	0f 84 c0 00 00 00    	je     100272e <printUserMode+0x220e>
 100266e:	8b 58 04             	mov    ebx,DWORD PTR [eax+0x4]
 1002671:	83 ec 0c             	sub    esp,0xc
 1002674:	8d 43 04             	lea    eax,[ebx+0x4]
 1002677:	50                   	push   eax
 1002678:	e8 73 f4 00 00       	call   1011af0 <_ZNSt10shared_ptrISt11__dequeNodeIcESt15default_deleterIS1_EE3decEv>
 100267d:	8b 84 24 98 00 00 00 	mov    eax,DWORD PTR [esp+0x98]
 1002684:	83 c4 10             	add    esp,0x10
 1002687:	85 c0                	test   eax,eax
 1002689:	89 43 04             	mov    DWORD PTR [ebx+0x4],eax
 100268c:	0f 84 84 00 00 00    	je     1002716 <printUserMode+0x21f6>
 1002692:	8b 58 04             	mov    ebx,DWORD PTR [eax+0x4]
 1002695:	83 00 01             	add    DWORD PTR [eax],0x1
 1002698:	83 ec 0c             	sub    esp,0xc
 100269b:	8d 43 08             	lea    eax,[ebx+0x8]
 100269e:	50                   	push   eax
 100269f:	e8 4c f4 00 00       	call   1011af0 <_ZNSt10shared_ptrISt11__dequeNodeIcESt15default_deleterIS1_EE3decEv>
 10026a4:	8b 84 24 c0 00 00 00 	mov    eax,DWORD PTR [esp+0xc0]
 10026ab:	83 c4 10             	add    esp,0x10
 10026ae:	85 c0                	test   eax,eax
 10026b0:	89 43 08             	mov    DWORD PTR [ebx+0x8],eax
 10026b3:	74 03                	je     10026b8 <printUserMode+0x2198>
 10026b5:	83 00 01             	add    DWORD PTR [eax],0x1
 10026b8:	83 ec 0c             	sub    esp,0xc
 10026bb:	8d 84 24 bc 00 00 00 	lea    eax,[esp+0xbc]
 10026c2:	50                   	push   eax
 10026c3:	e8 28 f4 00 00       	call   1011af0 <_ZNSt10shared_ptrISt11__dequeNodeIcESt15default_deleterIS1_EE3decEv>
 10026c8:	8b 84 24 98 00 00 00 	mov    eax,DWORD PTR [esp+0x98]
 10026cf:	89 84 24 c0 00 00 00 	mov    DWORD PTR [esp+0xc0],eax
 10026d6:	83 c4 10             	add    esp,0x10
 10026d9:	85 c0                	test   eax,eax
 10026db:	74 03                	je     10026e0 <printUserMode+0x21c0>
 10026dd:	83 00 01             	add    DWORD PTR [eax],0x1
 10026e0:	83 ec 0c             	sub    esp,0xc
 10026e3:	56                   	push   esi
 10026e4:	e8 07 f4 00 00       	call   1011af0 <_ZNSt10shared_ptrISt11__dequeNodeIcESt15default_deleterIS1_EE3decEv>
 10026e9:	83 c4 10             	add    esp,0x10
 10026ec:	8b 44 24 68          	mov    eax,DWORD PTR [esp+0x68]
 10026f0:	83 84 24 b4 00 00 00 	add    DWORD PTR [esp+0xb4],0x1
 10026f7:	01 
 10026f8:	85 c0                	test   eax,eax
 10026fa:	0f 85 78 e9 ff ff    	jne    1001078 <printUserMode+0xb58>
 1002700:	8b 44 24 7c          	mov    eax,DWORD PTR [esp+0x7c]
 1002704:	85 c0                	test   eax,eax
 1002706:	0f 84 1d 06 00 00    	je     1002d29 <printUserMode+0x2809>
 100270c:	8b 50 04             	mov    edx,DWORD PTR [eax+0x4]
 100270f:	31 c0                	xor    eax,eax
 1002711:	e9 6a e8 ff ff       	jmp    1000f80 <printUserMode+0xa60>
 1002716:	83 ec 0c             	sub    esp,0xc
 1002719:	6a 08                	push   0x8
 100271b:	e8 d0 f3 00 00       	call   1011af0 <_ZNSt10shared_ptrISt11__dequeNodeIcESt15default_deleterIS1_EE3decEv>
 1002720:	8b 84 24 c0 00 00 00 	mov    eax,DWORD PTR [esp+0xc0]
 1002727:	a3 08 00 00 00       	mov    ds:0x8,eax
 100272c:	0f 0b                	ud2    
 100272e:	83 ec 0c             	sub    esp,0xc
 1002731:	6a 04                	push   0x4
 1002733:	e8 b8 f3 00 00       	call   1011af0 <_ZNSt10shared_ptrISt11__dequeNodeIcESt15default_deleterIS1_EE3decEv>
 1002738:	8b 84 24 98 00 00 00 	mov    eax,DWORD PTR [esp+0x98]
 100273f:	a3 04 00 00 00       	mov    ds:0x4,eax
 1002744:	0f 0b                	ud2    
 1002746:	83 ec 0c             	sub    esp,0xc
 1002749:	8d 5c 24 74          	lea    ebx,[esp+0x74]
 100274d:	53                   	push   ebx
 100274e:	e8 ad f2 00 00       	call   1011a00 <_ZNSt10shared_ptrISt11__dequeNodeIjESt15default_deleterIS1_EE3decEv>
 1002753:	8b 47 04             	mov    eax,DWORD PTR [edi+0x4]
 1002756:	89 44 24 78          	mov    DWORD PTR [esp+0x78],eax
 100275a:	83 c4 10             	add    esp,0x10
 100275d:	85 c0                	test   eax,eax
 100275f:	0f 84 db 0d 00 00    	je     1003540 <printUserMode+0x3020>
 1002765:	83 00 01             	add    DWORD PTR [eax],0x1
 1002768:	e9 16 e9 ff ff       	jmp    1001083 <printUserMode+0xb63>
 100276d:	8b 6b 04             	mov    ebp,DWORD PTR [ebx+0x4]
 1002770:	85 ed                	test   ebp,ebp
 1002772:	0f 84 c1 fd ff ff    	je     1002539 <printUserMode+0x2019>
 1002778:	8b 4d 04             	mov    ecx,DWORD PTR [ebp+0x4]
 100277b:	8b 45 00             	mov    eax,DWORD PTR [ebp+0x0]
 100277e:	85 c9                	test   ecx,ecx
 1002780:	0f 84 75 0d 00 00    	je     10034fb <printUserMode+0x2fdb>
 1002786:	31 c9                	xor    ecx,ecx
 1002788:	89 5c 24 34          	mov    DWORD PTR [esp+0x34],ebx
 100278c:	89 74 24 30          	mov    DWORD PTR [esp+0x30],esi
 1002790:	89 cb                	mov    ebx,ecx
 1002792:	eb 0f                	jmp    10027a3 <printUserMode+0x2283>
 1002794:	8b 45 00             	mov    eax,DWORD PTR [ebp+0x0]
 1002797:	83 c3 01             	add    ebx,0x1
 100279a:	39 5d 04             	cmp    DWORD PTR [ebp+0x4],ebx
 100279d:	0f 86 50 0d 00 00    	jbe    10034f3 <printUserMode+0x2fd3>
 10027a3:	8d 3c d8             	lea    edi,[eax+ebx*8]
 10027a6:	8b 77 04             	mov    esi,DWORD PTR [edi+0x4]
 10027a9:	85 f6                	test   esi,esi
 10027ab:	74 ea                	je     1002797 <printUserMode+0x2277>
 10027ad:	8b 16                	mov    edx,DWORD PTR [esi]
 10027af:	83 fa 01             	cmp    edx,0x1
 10027b2:	0f 84 59 0b 00 00    	je     1003311 <printUserMode+0x2df1>
 10027b8:	83 ea 01             	sub    edx,0x1
 10027bb:	89 16                	mov    DWORD PTR [esi],edx
 10027bd:	8b 06                	mov    eax,DWORD PTR [esi]
 10027bf:	85 c0                	test   eax,eax
 10027c1:	75 d1                	jne    1002794 <printUserMode+0x2274>
 10027c3:	83 ec 08             	sub    esp,0x8
 10027c6:	6a 0c                	push   0xc
 10027c8:	56                   	push   esi
 10027c9:	e8 12 16 00 00       	call   1003de0 <_ZdlPvj>
 10027ce:	8b 45 00             	mov    eax,DWORD PTR [ebp+0x0]
 10027d1:	83 c4 10             	add    esp,0x10
 10027d4:	eb c1                	jmp    1002797 <printUserMode+0x2277>
 10027d6:	89 9c 24 ac 00 00 00 	mov    DWORD PTR [esp+0xac],ebx
 10027dd:	89 d8                	mov    eax,ebx
 10027df:	e9 65 e8 ff ff       	jmp    1001049 <printUserMode+0xb29>
 10027e4:	8d 46 08             	lea    eax,[esi+0x8]
 10027e7:	83 ec 0c             	sub    esp,0xc
 10027ea:	50                   	push   eax
 10027eb:	e8 10 f2 00 00       	call   1011a00 <_ZNSt10shared_ptrISt11__dequeNodeIjESt15default_deleterIS1_EE3decEv>
 10027f0:	8d 46 04             	lea    eax,[esi+0x4]
 10027f3:	89 04 24             	mov    DWORD PTR [esp],eax
 10027f6:	e8 05 f2 00 00       	call   1011a00 <_ZNSt10shared_ptrISt11__dequeNodeIjESt15default_deleterIS1_EE3decEv>
 10027fb:	5d                   	pop    ebp
 10027fc:	58                   	pop    eax
 10027fd:	6a 0c                	push   0xc
 10027ff:	56                   	push   esi
 1002800:	e8 db 15 00 00       	call   1003de0 <_ZdlPvj>
 1002805:	8b 03                	mov    eax,DWORD PTR [ebx]
 1002807:	83 c4 10             	add    esp,0x10
 100280a:	e9 18 eb ff ff       	jmp    1001327 <printUserMode+0xe07>
 100280f:	8d 46 08             	lea    eax,[esi+0x8]
 1002812:	83 ec 0c             	sub    esp,0xc
 1002815:	50                   	push   eax
 1002816:	e8 d5 f2 00 00       	call   1011af0 <_ZNSt10shared_ptrISt11__dequeNodeIcESt15default_deleterIS1_EE3decEv>
 100281b:	8d 46 04             	lea    eax,[esi+0x4]
 100281e:	89 04 24             	mov    DWORD PTR [esp],eax
 1002821:	e8 ca f2 00 00       	call   1011af0 <_ZNSt10shared_ptrISt11__dequeNodeIcESt15default_deleterIS1_EE3decEv>
 1002826:	5d                   	pop    ebp
 1002827:	58                   	pop    eax
 1002828:	6a 0c                	push   0xc
 100282a:	56                   	push   esi
 100282b:	e8 b0 15 00 00       	call   1003de0 <_ZdlPvj>
 1002830:	8b 03                	mov    eax,DWORD PTR [ebx]
 1002832:	83 c4 10             	add    esp,0x10
 1002835:	e9 e9 ed ff ff       	jmp    1001623 <printUserMode+0x1103>
 100283a:	8b 7c 24 24          	mov    edi,DWORD PTR [esp+0x24]
 100283e:	8b 6c 24 28          	mov    ebp,DWORD PTR [esp+0x28]
 1002842:	89 c6                	mov    esi,eax
 1002844:	8b 4c 24 2c          	mov    ecx,DWORD PTR [esp+0x2c]
 1002848:	85 d2                	test   edx,edx
 100284a:	c7 46 04 00 00 00 00 	mov    DWORD PTR [esi+0x4],0x0
 1002851:	c7 46 08 00 00 00 00 	mov    DWORD PTR [esi+0x8],0x0
 1002858:	74 14                	je     100286e <printUserMode+0x234e>
 100285a:	89 4c 24 10          	mov    DWORD PTR [esp+0x10],ecx
 100285e:	83 ec 0c             	sub    esp,0xc
 1002861:	52                   	push   edx
 1002862:	e8 99 15 00 00       	call   1003e00 <_ZdaPv>
 1002867:	83 c4 10             	add    esp,0x10
 100286a:	8b 4c 24 10          	mov    ecx,DWORD PTR [esp+0x10]
 100286e:	89 4c 24 10          	mov    DWORD PTR [esp+0x10],ecx
 1002872:	83 ec 08             	sub    esp,0x8
 1002875:	6a 0c                	push   0xc
 1002877:	56                   	push   esi
 1002878:	e8 63 15 00 00       	call   1003de0 <_ZdlPvj>
 100287d:	8b 44 24 74          	mov    eax,DWORD PTR [esp+0x74]
 1002881:	83 c4 10             	add    esp,0x10
 1002884:	83 2f 01             	sub    DWORD PTR [edi],0x1
 1002887:	8b 4c 24 10          	mov    ecx,DWORD PTR [esp+0x10]
 100288b:	85 c0                	test   eax,eax
 100288d:	0f 84 f3 e8 ff ff    	je     1001186 <printUserMode+0xc66>
 1002893:	89 c7                	mov    edi,eax
 1002895:	e9 e6 e8 ff ff       	jmp    1001180 <printUserMode+0xc60>
 100289a:	8b 43 04             	mov    eax,DWORD PTR [ebx+0x4]
 100289d:	85 c0                	test   eax,eax
 100289f:	0f 84 37 e1 ff ff    	je     10009dc <printUserMode+0x4bc>
 10028a5:	8b 50 04             	mov    edx,DWORD PTR [eax+0x4]
 10028a8:	85 d2                	test   edx,edx
 10028aa:	74 2c                	je     10028d8 <printUserMode+0x23b8>
 10028ac:	31 d2                	xor    edx,edx
 10028ae:	8b 08                	mov    ecx,DWORD PTR [eax]
 10028b0:	83 ec 0c             	sub    esp,0xc
 10028b3:	89 54 24 20          	mov    DWORD PTR [esp+0x20],edx
 10028b7:	89 44 24 24          	mov    DWORD PTR [esp+0x24],eax
 10028bb:	8d 4c d1 04          	lea    ecx,[ecx+edx*8+0x4]
 10028bf:	51                   	push   ecx
 10028c0:	e8 cb ee 00 00       	call   1011790 <_ZNSt10shared_ptrIN8keyboard5StateESt15default_deleterIS1_EE3decEv>
 10028c5:	8b 54 24 24          	mov    edx,DWORD PTR [esp+0x24]
 10028c9:	83 c4 10             	add    esp,0x10
 10028cc:	8b 44 24 18          	mov    eax,DWORD PTR [esp+0x18]
 10028d0:	83 c2 01             	add    edx,0x1
 10028d3:	39 50 04             	cmp    DWORD PTR [eax+0x4],edx
 10028d6:	77 d6                	ja     10028ae <printUserMode+0x238e>
 10028d8:	8b 08                	mov    ecx,DWORD PTR [eax]
 10028da:	c7 40 04 00 00 00 00 	mov    DWORD PTR [eax+0x4],0x0
 10028e1:	c7 40 08 00 00 00 00 	mov    DWORD PTR [eax+0x8],0x0
 10028e8:	85 c9                	test   ecx,ecx
 10028ea:	74 14                	je     1002900 <printUserMode+0x23e0>
 10028ec:	89 44 24 14          	mov    DWORD PTR [esp+0x14],eax
 10028f0:	83 ec 0c             	sub    esp,0xc
 10028f3:	51                   	push   ecx
 10028f4:	e8 07 15 00 00       	call   1003e00 <_ZdaPv>
 10028f9:	83 c4 10             	add    esp,0x10
 10028fc:	8b 44 24 14          	mov    eax,DWORD PTR [esp+0x14]
 1002900:	83 ec 08             	sub    esp,0x8
 1002903:	6a 0c                	push   0xc
 1002905:	50                   	push   eax
 1002906:	e8 d5 14 00 00       	call   1003de0 <_ZdlPvj>
 100290b:	8b 45 04             	mov    eax,DWORD PTR [ebp+0x4]
 100290e:	83 c4 10             	add    esp,0x10
 1002911:	83 2b 01             	sub    DWORD PTR [ebx],0x1
 1002914:	85 c0                	test   eax,eax
 1002916:	0f 84 95 e0 ff ff    	je     10009b1 <printUserMode+0x491>
 100291c:	89 c3                	mov    ebx,eax
 100291e:	e9 be e0 ff ff       	jmp    10009e1 <printUserMode+0x4c1>
 1002923:	8b 7b 04             	mov    edi,DWORD PTR [ebx+0x4]
 1002926:	85 ff                	test   edi,edi
 1002928:	0f 84 7f f6 ff ff    	je     1001fad <printUserMode+0x1a8d>
 100292e:	8b 47 04             	mov    eax,DWORD PTR [edi+0x4]
 1002931:	85 c0                	test   eax,eax
 1002933:	74 2c                	je     1002961 <printUserMode+0x2441>
 1002935:	31 c0                	xor    eax,eax
 1002937:	8b 0f                	mov    ecx,DWORD PTR [edi]
 1002939:	89 54 24 14          	mov    DWORD PTR [esp+0x14],edx
 100293d:	83 ec 0c             	sub    esp,0xc
 1002940:	89 44 24 1c          	mov    DWORD PTR [esp+0x1c],eax
 1002944:	8d 4c c1 04          	lea    ecx,[ecx+eax*8+0x4]
 1002948:	51                   	push   ecx
 1002949:	e8 42 ee 00 00       	call   1011790 <_ZNSt10shared_ptrIN8keyboard5StateESt15default_deleterIS1_EE3decEv>
 100294e:	8b 44 24 20          	mov    eax,DWORD PTR [esp+0x20]
 1002952:	83 c4 10             	add    esp,0x10
 1002955:	8b 54 24 14          	mov    edx,DWORD PTR [esp+0x14]
 1002959:	83 c0 01             	add    eax,0x1
 100295c:	39 47 04             	cmp    DWORD PTR [edi+0x4],eax
 100295f:	77 d6                	ja     1002937 <printUserMode+0x2417>
 1002961:	8b 07                	mov    eax,DWORD PTR [edi]
 1002963:	c7 47 04 00 00 00 00 	mov    DWORD PTR [edi+0x4],0x0
 100296a:	c7 47 08 00 00 00 00 	mov    DWORD PTR [edi+0x8],0x0
 1002971:	85 c0                	test   eax,eax
 1002973:	74 14                	je     1002989 <printUserMode+0x2469>
 1002975:	89 54 24 10          	mov    DWORD PTR [esp+0x10],edx
 1002979:	83 ec 0c             	sub    esp,0xc
 100297c:	50                   	push   eax
 100297d:	e8 7e 14 00 00       	call   1003e00 <_ZdaPv>
 1002982:	83 c4 10             	add    esp,0x10
 1002985:	8b 54 24 10          	mov    edx,DWORD PTR [esp+0x10]
 1002989:	89 54 24 10          	mov    DWORD PTR [esp+0x10],edx
 100298d:	83 ec 08             	sub    esp,0x8
 1002990:	6a 0c                	push   0xc
 1002992:	57                   	push   edi
 1002993:	e8 48 14 00 00       	call   1003de0 <_ZdlPvj>
 1002998:	8b 46 04             	mov    eax,DWORD PTR [esi+0x4]
 100299b:	83 c4 10             	add    esp,0x10
 100299e:	83 2b 01             	sub    DWORD PTR [ebx],0x1
 10029a1:	8b 54 24 10          	mov    edx,DWORD PTR [esp+0x10]
 10029a5:	85 c0                	test   eax,eax
 10029a7:	0f 84 0f f6 ff ff    	je     1001fbc <printUserMode+0x1a9c>
 10029ad:	89 c3                	mov    ebx,eax
 10029af:	e9 fe f5 ff ff       	jmp    1001fb2 <printUserMode+0x1a92>
 10029b4:	8b 7b 04             	mov    edi,DWORD PTR [ebx+0x4]
 10029b7:	85 ff                	test   edi,edi
 10029b9:	0f 84 80 f6 ff ff    	je     100203f <printUserMode+0x1b1f>
 10029bf:	8b 47 04             	mov    eax,DWORD PTR [edi+0x4]
 10029c2:	85 c0                	test   eax,eax
 10029c4:	74 2c                	je     10029f2 <printUserMode+0x24d2>
 10029c6:	31 c0                	xor    eax,eax
 10029c8:	8b 0f                	mov    ecx,DWORD PTR [edi]
 10029ca:	89 54 24 14          	mov    DWORD PTR [esp+0x14],edx
 10029ce:	83 ec 0c             	sub    esp,0xc
 10029d1:	89 44 24 1c          	mov    DWORD PTR [esp+0x1c],eax
 10029d5:	8d 4c c1 04          	lea    ecx,[ecx+eax*8+0x4]
 10029d9:	51                   	push   ecx
 10029da:	e8 b1 ed 00 00       	call   1011790 <_ZNSt10shared_ptrIN8keyboard5StateESt15default_deleterIS1_EE3decEv>
 10029df:	8b 44 24 20          	mov    eax,DWORD PTR [esp+0x20]
 10029e3:	83 c4 10             	add    esp,0x10
 10029e6:	8b 54 24 14          	mov    edx,DWORD PTR [esp+0x14]
 10029ea:	83 c0 01             	add    eax,0x1
 10029ed:	39 47 04             	cmp    DWORD PTR [edi+0x4],eax
 10029f0:	77 d6                	ja     10029c8 <printUserMode+0x24a8>
 10029f2:	8b 07                	mov    eax,DWORD PTR [edi]
 10029f4:	c7 47 04 00 00 00 00 	mov    DWORD PTR [edi+0x4],0x0
 10029fb:	c7 47 08 00 00 00 00 	mov    DWORD PTR [edi+0x8],0x0
 1002a02:	85 c0                	test   eax,eax
 1002a04:	74 14                	je     1002a1a <printUserMode+0x24fa>
 1002a06:	89 54 24 10          	mov    DWORD PTR [esp+0x10],edx
 1002a0a:	83 ec 0c             	sub    esp,0xc
 1002a0d:	50                   	push   eax
 1002a0e:	e8 ed 13 00 00       	call   1003e00 <_ZdaPv>
 1002a13:	83 c4 10             	add    esp,0x10
 1002a16:	8b 54 24 10          	mov    edx,DWORD PTR [esp+0x10]
 1002a1a:	89 54 24 10          	mov    DWORD PTR [esp+0x10],edx
 1002a1e:	83 ec 08             	sub    esp,0x8
 1002a21:	6a 0c                	push   0xc
 1002a23:	57                   	push   edi
 1002a24:	e8 b7 13 00 00       	call   1003de0 <_ZdlPvj>
 1002a29:	8b 46 04             	mov    eax,DWORD PTR [esi+0x4]
 1002a2c:	83 c4 10             	add    esp,0x10
 1002a2f:	83 2b 01             	sub    DWORD PTR [ebx],0x1
 1002a32:	8b 54 24 10          	mov    edx,DWORD PTR [esp+0x10]
 1002a36:	85 c0                	test   eax,eax
 1002a38:	0f 84 10 f6 ff ff    	je     100204e <printUserMode+0x1b2e>
 1002a3e:	89 c3                	mov    ebx,eax
 1002a40:	e9 ff f5 ff ff       	jmp    1002044 <printUserMode+0x1b24>
 1002a45:	c7 03 00 00 00 00    	mov    DWORD PTR [ebx],0x0
 1002a4b:	83 ec 08             	sub    esp,0x8
 1002a4e:	6a 0c                	push   0xc
 1002a50:	53                   	push   ebx
 1002a51:	e8 8a 13 00 00       	call   1003de0 <_ZdlPvj>
 1002a56:	83 c4 10             	add    esp,0x10
 1002a59:	e9 06 e6 ff ff       	jmp    1001064 <printUserMode+0xb44>
 1002a5e:	8b 43 04             	mov    eax,DWORD PTR [ebx+0x4]
 1002a61:	85 c0                	test   eax,eax
 1002a63:	0f 84 f2 f4 ff ff    	je     1001f5b <printUserMode+0x1a3b>
 1002a69:	8b 50 04             	mov    edx,DWORD PTR [eax+0x4]
 1002a6c:	85 d2                	test   edx,edx
 1002a6e:	74 2c                	je     1002a9c <printUserMode+0x257c>
 1002a70:	31 d2                	xor    edx,edx
 1002a72:	8b 08                	mov    ecx,DWORD PTR [eax]
 1002a74:	83 ec 0c             	sub    esp,0xc
 1002a77:	89 54 24 20          	mov    DWORD PTR [esp+0x20],edx
 1002a7b:	89 44 24 24          	mov    DWORD PTR [esp+0x24],eax
 1002a7f:	8d 4c d1 04          	lea    ecx,[ecx+edx*8+0x4]
 1002a83:	51                   	push   ecx
 1002a84:	e8 07 ed 00 00       	call   1011790 <_ZNSt10shared_ptrIN8keyboard5StateESt15default_deleterIS1_EE3decEv>
 1002a89:	8b 54 24 24          	mov    edx,DWORD PTR [esp+0x24]
 1002a8d:	83 c4 10             	add    esp,0x10
 1002a90:	8b 44 24 18          	mov    eax,DWORD PTR [esp+0x18]
 1002a94:	83 c2 01             	add    edx,0x1
 1002a97:	39 50 04             	cmp    DWORD PTR [eax+0x4],edx
 1002a9a:	77 d6                	ja     1002a72 <printUserMode+0x2552>
 1002a9c:	8b 08                	mov    ecx,DWORD PTR [eax]
 1002a9e:	c7 40 04 00 00 00 00 	mov    DWORD PTR [eax+0x4],0x0
 1002aa5:	c7 40 08 00 00 00 00 	mov    DWORD PTR [eax+0x8],0x0
 1002aac:	85 c9                	test   ecx,ecx
 1002aae:	74 14                	je     1002ac4 <printUserMode+0x25a4>
 1002ab0:	89 44 24 14          	mov    DWORD PTR [esp+0x14],eax
 1002ab4:	83 ec 0c             	sub    esp,0xc
 1002ab7:	51                   	push   ecx
 1002ab8:	e8 43 13 00 00       	call   1003e00 <_ZdaPv>
 1002abd:	83 c4 10             	add    esp,0x10
 1002ac0:	8b 44 24 14          	mov    eax,DWORD PTR [esp+0x14]
 1002ac4:	83 ec 08             	sub    esp,0x8
 1002ac7:	6a 0c                	push   0xc
 1002ac9:	50                   	push   eax
 1002aca:	e8 11 13 00 00       	call   1003de0 <_ZdlPvj>
 1002acf:	8b 45 04             	mov    eax,DWORD PTR [ebp+0x4]
 1002ad2:	83 c4 10             	add    esp,0x10
 1002ad5:	83 2b 01             	sub    DWORD PTR [ebx],0x1
 1002ad8:	85 c0                	test   eax,eax
 1002ada:	0f 84 50 f4 ff ff    	je     1001f30 <printUserMode+0x1a10>
 1002ae0:	89 c3                	mov    ebx,eax
 1002ae2:	e9 79 f4 ff ff       	jmp    1001f60 <printUserMode+0x1a40>
 1002ae7:	8b 43 04             	mov    eax,DWORD PTR [ebx+0x4]
 1002aea:	85 c0                	test   eax,eax
 1002aec:	0f 84 7b e3 ff ff    	je     1000e6d <printUserMode+0x94d>
 1002af2:	8b 50 04             	mov    edx,DWORD PTR [eax+0x4]
 1002af5:	85 d2                	test   edx,edx
 1002af7:	74 2c                	je     1002b25 <printUserMode+0x2605>
 1002af9:	31 d2                	xor    edx,edx
 1002afb:	8b 08                	mov    ecx,DWORD PTR [eax]
 1002afd:	83 ec 0c             	sub    esp,0xc
 1002b00:	89 54 24 24          	mov    DWORD PTR [esp+0x24],edx
 1002b04:	89 44 24 2c          	mov    DWORD PTR [esp+0x2c],eax
 1002b08:	8d 4c d1 04          	lea    ecx,[ecx+edx*8+0x4]
 1002b0c:	51                   	push   ecx
 1002b0d:	e8 7e ec 00 00       	call   1011790 <_ZNSt10shared_ptrIN8keyboard5StateESt15default_deleterIS1_EE3decEv>
 1002b12:	8b 54 24 28          	mov    edx,DWORD PTR [esp+0x28]
 1002b16:	83 c4 10             	add    esp,0x10
 1002b19:	8b 44 24 20          	mov    eax,DWORD PTR [esp+0x20]
 1002b1d:	83 c2 01             	add    edx,0x1
 1002b20:	39 50 04             	cmp    DWORD PTR [eax+0x4],edx
 1002b23:	77 d6                	ja     1002afb <printUserMode+0x25db>
 1002b25:	8b 10                	mov    edx,DWORD PTR [eax]
 1002b27:	c7 40 04 00 00 00 00 	mov    DWORD PTR [eax+0x4],0x0
 1002b2e:	c7 40 08 00 00 00 00 	mov    DWORD PTR [eax+0x8],0x0
 1002b35:	85 d2                	test   edx,edx
 1002b37:	74 14                	je     1002b4d <printUserMode+0x262d>
 1002b39:	89 44 24 18          	mov    DWORD PTR [esp+0x18],eax
 1002b3d:	83 ec 0c             	sub    esp,0xc
 1002b40:	52                   	push   edx
 1002b41:	e8 ba 12 00 00       	call   1003e00 <_ZdaPv>
 1002b46:	83 c4 10             	add    esp,0x10
 1002b49:	8b 44 24 18          	mov    eax,DWORD PTR [esp+0x18]
 1002b4d:	83 ec 08             	sub    esp,0x8
 1002b50:	6a 0c                	push   0xc
 1002b52:	50                   	push   eax
 1002b53:	e8 88 12 00 00       	call   1003de0 <_ZdlPvj>
 1002b58:	8b 45 04             	mov    eax,DWORD PTR [ebp+0x4]
 1002b5b:	83 c4 10             	add    esp,0x10
 1002b5e:	83 2b 01             	sub    DWORD PTR [ebx],0x1
 1002b61:	85 c0                	test   eax,eax
 1002b63:	0f 84 d9 e2 ff ff    	je     1000e42 <printUserMode+0x922>
 1002b69:	89 c3                	mov    ebx,eax
 1002b6b:	e9 02 e3 ff ff       	jmp    1000e72 <printUserMode+0x952>
 1002b70:	83 ec 08             	sub    esp,0x8
 1002b73:	6a 0c                	push   0xc
 1002b75:	57                   	push   edi
 1002b76:	e8 65 12 00 00       	call   1003de0 <_ZdlPvj>
 1002b7b:	8b 84 24 c0 00 00 00 	mov    eax,DWORD PTR [esp+0xc0]
 1002b82:	83 c4 10             	add    esp,0x10
 1002b85:	e9 b4 e4 ff ff       	jmp    100103e <printUserMode+0xb1e>
 1002b8a:	83 ec 08             	sub    esp,0x8
 1002b8d:	6a 0c                	push   0xc
 1002b8f:	57                   	push   edi
 1002b90:	e8 4b 12 00 00       	call   1003de0 <_ZdlPvj>
 1002b95:	8b 03                	mov    eax,DWORD PTR [ebx]
 1002b97:	83 c4 10             	add    esp,0x10
 1002b9a:	83 c0 01             	add    eax,0x1
 1002b9d:	e9 63 e4 ff ff       	jmp    1001005 <printUserMode+0xae5>
 1002ba2:	8b 7b 04             	mov    edi,DWORD PTR [ebx+0x4]
 1002ba5:	85 ff                	test   edi,edi
 1002ba7:	0f 84 f7 f6 ff ff    	je     10022a4 <printUserMode+0x1d84>
 1002bad:	8b 47 04             	mov    eax,DWORD PTR [edi+0x4]
 1002bb0:	85 c0                	test   eax,eax
 1002bb2:	74 2c                	je     1002be0 <printUserMode+0x26c0>
 1002bb4:	31 c0                	xor    eax,eax
 1002bb6:	8b 17                	mov    edx,DWORD PTR [edi]
 1002bb8:	89 4c 24 48          	mov    DWORD PTR [esp+0x48],ecx
 1002bbc:	83 ec 0c             	sub    esp,0xc
 1002bbf:	89 44 24 50          	mov    DWORD PTR [esp+0x50],eax
 1002bc3:	8d 54 c2 04          	lea    edx,[edx+eax*8+0x4]
 1002bc7:	52                   	push   edx
 1002bc8:	e8 c3 eb 00 00       	call   1011790 <_ZNSt10shared_ptrIN8keyboard5StateESt15default_deleterIS1_EE3decEv>
 1002bcd:	8b 44 24 54          	mov    eax,DWORD PTR [esp+0x54]
 1002bd1:	83 c4 10             	add    esp,0x10
 1002bd4:	8b 4c 24 48          	mov    ecx,DWORD PTR [esp+0x48]
 1002bd8:	83 c0 01             	add    eax,0x1
 1002bdb:	39 47 04             	cmp    DWORD PTR [edi+0x4],eax
 1002bde:	77 d6                	ja     1002bb6 <printUserMode+0x2696>
 1002be0:	8b 07                	mov    eax,DWORD PTR [edi]
 1002be2:	c7 47 04 00 00 00 00 	mov    DWORD PTR [edi+0x4],0x0
 1002be9:	c7 47 08 00 00 00 00 	mov    DWORD PTR [edi+0x8],0x0
 1002bf0:	85 c0                	test   eax,eax
 1002bf2:	74 14                	je     1002c08 <printUserMode+0x26e8>
 1002bf4:	89 4c 24 44          	mov    DWORD PTR [esp+0x44],ecx
 1002bf8:	83 ec 0c             	sub    esp,0xc
 1002bfb:	50                   	push   eax
 1002bfc:	e8 ff 11 00 00       	call   1003e00 <_ZdaPv>
 1002c01:	83 c4 10             	add    esp,0x10
 1002c04:	8b 4c 24 44          	mov    ecx,DWORD PTR [esp+0x44]
 1002c08:	89 4c 24 44          	mov    DWORD PTR [esp+0x44],ecx
 1002c0c:	83 ec 08             	sub    esp,0x8
 1002c0f:	6a 0c                	push   0xc
 1002c11:	57                   	push   edi
 1002c12:	e8 c9 11 00 00       	call   1003de0 <_ZdlPvj>
 1002c17:	8b 4c 24 54          	mov    ecx,DWORD PTR [esp+0x54]
 1002c1b:	83 c4 10             	add    esp,0x10
 1002c1e:	8b 41 04             	mov    eax,DWORD PTR [ecx+0x4]
 1002c21:	83 2b 01             	sub    DWORD PTR [ebx],0x1
 1002c24:	85 c0                	test   eax,eax
 1002c26:	0f 84 54 f6 ff ff    	je     1002280 <printUserMode+0x1d60>
 1002c2c:	89 c3                	mov    ebx,eax
 1002c2e:	e9 76 f6 ff ff       	jmp    10022a9 <printUserMode+0x1d89>
 1002c33:	8b 6f 04             	mov    ebp,DWORD PTR [edi+0x4]
 1002c36:	85 ed                	test   ebp,ebp
 1002c38:	0f 84 b3 e3 ff ff    	je     1000ff1 <printUserMode+0xad1>
 1002c3e:	8d 45 08             	lea    eax,[ebp+0x8]
 1002c41:	83 ec 0c             	sub    esp,0xc
 1002c44:	50                   	push   eax
 1002c45:	e8 a6 ee 00 00       	call   1011af0 <_ZNSt10shared_ptrISt11__dequeNodeIcESt15default_deleterIS1_EE3decEv>
 1002c4a:	8d 45 04             	lea    eax,[ebp+0x4]
 1002c4d:	89 04 24             	mov    DWORD PTR [esp],eax
 1002c50:	e8 9b ee 00 00       	call   1011af0 <_ZNSt10shared_ptrISt11__dequeNodeIcESt15default_deleterIS1_EE3decEv>
 1002c55:	58                   	pop    eax
 1002c56:	5a                   	pop    edx
 1002c57:	6a 0c                	push   0xc
 1002c59:	55                   	push   ebp
 1002c5a:	e8 81 11 00 00       	call   1003de0 <_ZdlPvj>
 1002c5f:	8b 84 24 c0 00 00 00 	mov    eax,DWORD PTR [esp+0xc0]
 1002c66:	83 2f 01             	sub    DWORD PTR [edi],0x1
 1002c69:	83 c4 10             	add    esp,0x10
 1002c6c:	85 c0                	test   eax,eax
 1002c6e:	0f 84 8c e3 ff ff    	je     1001000 <printUserMode+0xae0>
 1002c74:	89 c7                	mov    edi,eax
 1002c76:	e9 7b e3 ff ff       	jmp    1000ff6 <printUserMode+0xad6>
 1002c7b:	83 ec 0c             	sub    esp,0xc
 1002c7e:	6a 08                	push   0x8
 1002c80:	e8 7b ed 00 00       	call   1011a00 <_ZNSt10shared_ptrISt11__dequeNodeIjESt15default_deleterIS1_EE3decEv>
 1002c85:	8b 84 24 84 00 00 00 	mov    eax,DWORD PTR [esp+0x84]
 1002c8c:	a3 08 00 00 00       	mov    ds:0x8,eax
 1002c91:	0f 0b                	ud2    
 1002c93:	83 ec 0c             	sub    esp,0xc
 1002c96:	6a 04                	push   0x4
 1002c98:	e8 63 ed 00 00       	call   1011a00 <_ZNSt10shared_ptrISt11__dequeNodeIjESt15default_deleterIS1_EE3decEv>
 1002c9d:	8b 84 24 98 00 00 00 	mov    eax,DWORD PTR [esp+0x98]
 1002ca4:	a3 04 00 00 00       	mov    ds:0x4,eax
 1002ca9:	0f 0b                	ud2    
 1002cab:	8b 7b 04             	mov    edi,DWORD PTR [ebx+0x4]
 1002cae:	85 ff                	test   edi,edi
 1002cb0:	0f 84 8f fd ff ff    	je     1002a45 <printUserMode+0x2525>
 1002cb6:	8d 47 08             	lea    eax,[edi+0x8]
 1002cb9:	83 ec 0c             	sub    esp,0xc
 1002cbc:	50                   	push   eax
 1002cbd:	e8 2e ee 00 00       	call   1011af0 <_ZNSt10shared_ptrISt11__dequeNodeIcESt15default_deleterIS1_EE3decEv>
 1002cc2:	8d 47 04             	lea    eax,[edi+0x4]
 1002cc5:	89 04 24             	mov    DWORD PTR [esp],eax
 1002cc8:	e8 23 ee 00 00       	call   1011af0 <_ZNSt10shared_ptrISt11__dequeNodeIcESt15default_deleterIS1_EE3decEv>
 1002ccd:	58                   	pop    eax
 1002cce:	5a                   	pop    edx
 1002ccf:	6a 0c                	push   0xc
 1002cd1:	57                   	push   edi
 1002cd2:	e8 09 11 00 00       	call   1003de0 <_ZdlPvj>
 1002cd7:	8b 03                	mov    eax,DWORD PTR [ebx]
 1002cd9:	83 c4 10             	add    esp,0x10
 1002cdc:	e9 76 e3 ff ff       	jmp    1001057 <printUserMode+0xb37>
 1002ce1:	8b 6f 04             	mov    ebp,DWORD PTR [edi+0x4]
 1002ce4:	85 ed                	test   ebp,ebp
 1002ce6:	0f 84 3c e3 ff ff    	je     1001028 <printUserMode+0xb08>
 1002cec:	8d 45 08             	lea    eax,[ebp+0x8]
 1002cef:	83 ec 0c             	sub    esp,0xc
 1002cf2:	50                   	push   eax
 1002cf3:	e8 f8 ed 00 00       	call   1011af0 <_ZNSt10shared_ptrISt11__dequeNodeIcESt15default_deleterIS1_EE3decEv>
 1002cf8:	8d 45 04             	lea    eax,[ebp+0x4]
 1002cfb:	89 04 24             	mov    DWORD PTR [esp],eax
 1002cfe:	e8 ed ed 00 00       	call   1011af0 <_ZNSt10shared_ptrISt11__dequeNodeIcESt15default_deleterIS1_EE3decEv>
 1002d03:	58                   	pop    eax
 1002d04:	5a                   	pop    edx
 1002d05:	6a 0c                	push   0xc
 1002d07:	55                   	push   ebp
 1002d08:	e8 d3 10 00 00       	call   1003de0 <_ZdlPvj>
 1002d0d:	8b 84 24 bc 00 00 00 	mov    eax,DWORD PTR [esp+0xbc]
 1002d14:	83 2f 01             	sub    DWORD PTR [edi],0x1
 1002d17:	83 c4 10             	add    esp,0x10
 1002d1a:	85 c0                	test   eax,eax
 1002d1c:	0f 84 15 e3 ff ff    	je     1001037 <printUserMode+0xb17>
 1002d22:	89 c7                	mov    edi,eax
 1002d24:	e9 04 e3 ff ff       	jmp    100102d <printUserMode+0xb0d>
 1002d29:	8b 6c 24 10          	mov    ebp,DWORD PTR [esp+0x10]
 1002d2d:	8d 5c 24 68          	lea    ebx,[esp+0x68]
 1002d31:	83 ec 0c             	sub    esp,0xc
 1002d34:	8d 84 24 88 00 00 00 	lea    eax,[esp+0x88]
 1002d3b:	50                   	push   eax
 1002d3c:	e8 bf ec 00 00       	call   1011a00 <_ZNSt10shared_ptrISt11__dequeNodeIjESt15default_deleterIS1_EE3decEv>
 1002d41:	89 1c 24             	mov    DWORD PTR [esp],ebx
 1002d44:	e8 b7 ec 00 00       	call   1011a00 <_ZNSt10shared_ptrISt11__dequeNodeIjESt15default_deleterIS1_EE3decEv>
 1002d49:	83 c4 10             	add    esp,0x10
 1002d4c:	8b 44 24 78          	mov    eax,DWORD PTR [esp+0x78]
 1002d50:	85 c0                	test   eax,eax
 1002d52:	0f 84 c0 01 00 00    	je     1002f18 <printUserMode+0x29f8>
 1002d58:	8d 7c 24 74          	lea    edi,[esp+0x74]
 1002d5c:	eb 2a                	jmp    1002d88 <printUserMode+0x2868>
 1002d5e:	85 c0                	test   eax,eax
 1002d60:	8b 52 04             	mov    edx,DWORD PTR [edx+0x4]
 1002d63:	0f 84 a2 01 00 00    	je     1002f0b <printUserMode+0x29eb>
 1002d69:	39 50 04             	cmp    DWORD PTR [eax+0x4],edx
 1002d6c:	74 2c                	je     1002d9a <printUserMode+0x287a>
 1002d6e:	8b 40 04             	mov    eax,DWORD PTR [eax+0x4]
 1002d71:	85 c0                	test   eax,eax
 1002d73:	89 44 24 10          	mov    DWORD PTR [esp+0x10],eax
 1002d77:	0f 85 cb 00 00 00    	jne    1002e48 <printUserMode+0x2928>
 1002d7d:	83 6c 24 78 01       	sub    DWORD PTR [esp+0x78],0x1
 1002d82:	0f 84 90 01 00 00    	je     1002f18 <printUserMode+0x29f8>
 1002d88:	8b 54 24 70          	mov    edx,DWORD PTR [esp+0x70]
 1002d8c:	8b 44 24 74          	mov    eax,DWORD PTR [esp+0x74]
 1002d90:	85 d2                	test   edx,edx
 1002d92:	75 ca                	jne    1002d5e <printUserMode+0x283e>
 1002d94:	31 d2                	xor    edx,edx
 1002d96:	85 c0                	test   eax,eax
 1002d98:	75 cf                	jne    1002d69 <printUserMode+0x2849>
 1002d9a:	83 ec 0c             	sub    esp,0xc
 1002d9d:	8d 44 24 7c          	lea    eax,[esp+0x7c]
 1002da1:	89 44 24 1c          	mov    DWORD PTR [esp+0x1c],eax
 1002da5:	57                   	push   edi
 1002da6:	e8 55 ec 00 00       	call   1011a00 <_ZNSt10shared_ptrISt11__dequeNodeIjESt15default_deleterIS1_EE3decEv>
 1002dab:	8b 44 24 20          	mov    eax,DWORD PTR [esp+0x20]
 1002daf:	c7 84 24 84 00 00 00 	mov    DWORD PTR [esp+0x84],0x0
 1002db6:	00 00 00 00 
 1002dba:	89 04 24             	mov    DWORD PTR [esp],eax
 1002dbd:	e8 3e ec 00 00       	call   1011a00 <_ZNSt10shared_ptrISt11__dequeNodeIjESt15default_deleterIS1_EE3decEv>
 1002dc2:	8b 84 24 84 00 00 00 	mov    eax,DWORD PTR [esp+0x84]
 1002dc9:	89 84 24 80 00 00 00 	mov    DWORD PTR [esp+0x80],eax
 1002dd0:	83 c4 10             	add    esp,0x10
 1002dd3:	85 c0                	test   eax,eax
 1002dd5:	74 a6                	je     1002d7d <printUserMode+0x285d>
 1002dd7:	83 00 01             	add    DWORD PTR [eax],0x1
 1002dda:	8b 40 04             	mov    eax,DWORD PTR [eax+0x4]
 1002ddd:	85 c0                	test   eax,eax
 1002ddf:	74 9c                	je     1002d7d <printUserMode+0x285d>
 1002de1:	8d 50 04             	lea    edx,[eax+0x4]
 1002de4:	83 ec 0c             	sub    esp,0xc
 1002de7:	89 44 24 1c          	mov    DWORD PTR [esp+0x1c],eax
 1002deb:	52                   	push   edx
 1002dec:	e8 0f ec 00 00       	call   1011a00 <_ZNSt10shared_ptrISt11__dequeNodeIjESt15default_deleterIS1_EE3decEv>
 1002df1:	8b 44 24 20          	mov    eax,DWORD PTR [esp+0x20]
 1002df5:	c7 40 04 00 00 00 00 	mov    DWORD PTR [eax+0x4],0x0
 1002dfc:	8b 84 24 80 00 00 00 	mov    eax,DWORD PTR [esp+0x80]
 1002e03:	83 c4 10             	add    esp,0x10
 1002e06:	85 c0                	test   eax,eax
 1002e08:	0f 84 98 eb ff ff    	je     10019a6 <printUserMode+0x1486>
 1002e0e:	8b 40 04             	mov    eax,DWORD PTR [eax+0x4]
 1002e11:	83 ec 0c             	sub    esp,0xc
 1002e14:	8d 50 08             	lea    edx,[eax+0x8]
 1002e17:	89 44 24 1c          	mov    DWORD PTR [esp+0x1c],eax
 1002e1b:	52                   	push   edx
 1002e1c:	e8 df eb 00 00       	call   1011a00 <_ZNSt10shared_ptrISt11__dequeNodeIjESt15default_deleterIS1_EE3decEv>
 1002e21:	8b 44 24 20          	mov    eax,DWORD PTR [esp+0x20]
 1002e25:	c7 40 08 00 00 00 00 	mov    DWORD PTR [eax+0x8],0x0
 1002e2c:	8b 84 24 84 00 00 00 	mov    eax,DWORD PTR [esp+0x84]
 1002e33:	83 c4 10             	add    esp,0x10
 1002e36:	85 c0                	test   eax,eax
 1002e38:	0f 84 3f ff ff ff    	je     1002d7d <printUserMode+0x285d>
 1002e3e:	e9 2b ff ff ff       	jmp    1002d6e <printUserMode+0x284e>
 1002e43:	90                   	nop
 1002e44:	8d 74 26 00          	lea    esi,[esi+eiz*1+0x0]
 1002e48:	83 ec 0c             	sub    esp,0xc
 1002e4b:	57                   	push   edi
 1002e4c:	e8 af eb 00 00       	call   1011a00 <_ZNSt10shared_ptrISt11__dequeNodeIjESt15default_deleterIS1_EE3decEv>
 1002e51:	8b 44 24 20          	mov    eax,DWORD PTR [esp+0x20]
 1002e55:	8b 40 08             	mov    eax,DWORD PTR [eax+0x8]
 1002e58:	89 84 24 84 00 00 00 	mov    DWORD PTR [esp+0x84],eax
 1002e5f:	83 c4 10             	add    esp,0x10
 1002e62:	85 c0                	test   eax,eax
 1002e64:	0f 84 a6 e5 ff ff    	je     1001410 <printUserMode+0xef0>
 1002e6a:	83 00 01             	add    DWORD PTR [eax],0x1
 1002e6d:	8b 40 04             	mov    eax,DWORD PTR [eax+0x4]
 1002e70:	8b 40 04             	mov    eax,DWORD PTR [eax+0x4]
 1002e73:	85 c0                	test   eax,eax
 1002e75:	0f 84 2b eb ff ff    	je     10019a6 <printUserMode+0x1486>
 1002e7b:	8b 40 04             	mov    eax,DWORD PTR [eax+0x4]
 1002e7e:	83 ec 0c             	sub    esp,0xc
 1002e81:	8d 50 08             	lea    edx,[eax+0x8]
 1002e84:	89 44 24 1c          	mov    DWORD PTR [esp+0x1c],eax
 1002e88:	52                   	push   edx
 1002e89:	e8 72 eb 00 00       	call   1011a00 <_ZNSt10shared_ptrISt11__dequeNodeIjESt15default_deleterIS1_EE3decEv>
 1002e8e:	8b 44 24 20          	mov    eax,DWORD PTR [esp+0x20]
 1002e92:	c7 40 08 00 00 00 00 	mov    DWORD PTR [eax+0x8],0x0
 1002e99:	8b 84 24 84 00 00 00 	mov    eax,DWORD PTR [esp+0x84]
 1002ea0:	83 c4 10             	add    esp,0x10
 1002ea3:	85 c0                	test   eax,eax
 1002ea5:	74 4e                	je     1002ef5 <printUserMode+0x29d5>
 1002ea7:	8b 40 04             	mov    eax,DWORD PTR [eax+0x4]
 1002eaa:	83 ec 0c             	sub    esp,0xc
 1002ead:	8d 50 04             	lea    edx,[eax+0x4]
 1002eb0:	89 44 24 1c          	mov    DWORD PTR [esp+0x1c],eax
 1002eb4:	52                   	push   edx
 1002eb5:	e8 46 eb 00 00       	call   1011a00 <_ZNSt10shared_ptrISt11__dequeNodeIjESt15default_deleterIS1_EE3decEv>
 1002eba:	8b 44 24 20          	mov    eax,DWORD PTR [esp+0x20]
 1002ebe:	83 c4 10             	add    esp,0x10
 1002ec1:	c7 40 04 00 00 00 00 	mov    DWORD PTR [eax+0x4],0x0
 1002ec8:	e9 b0 fe ff ff       	jmp    1002d7d <printUserMode+0x285d>
 1002ecd:	8b 58 04             	mov    ebx,DWORD PTR [eax+0x4]
 1002ed0:	83 ec 0c             	sub    esp,0xc
 1002ed3:	8d 43 08             	lea    eax,[ebx+0x8]
 1002ed6:	50                   	push   eax
 1002ed7:	e8 24 eb 00 00       	call   1011a00 <_ZNSt10shared_ptrISt11__dequeNodeIjESt15default_deleterIS1_EE3decEv>
 1002edc:	8b 84 24 84 00 00 00 	mov    eax,DWORD PTR [esp+0x84]
 1002ee3:	83 c4 10             	add    esp,0x10
 1002ee6:	c7 43 08 00 00 00 00 	mov    DWORD PTR [ebx+0x8],0x0
 1002eed:	85 c0                	test   eax,eax
 1002eef:	0f 85 f7 03 00 00    	jne    10032ec <printUserMode+0x2dcc>
 1002ef5:	83 ec 0c             	sub    esp,0xc
 1002ef8:	6a 04                	push   0x4
 1002efa:	e8 01 eb 00 00       	call   1011a00 <_ZNSt10shared_ptrISt11__dequeNodeIjESt15default_deleterIS1_EE3decEv>
 1002eff:	c7 05 04 00 00 00 00 	mov    DWORD PTR ds:0x4,0x0
 1002f06:	00 00 00 
 1002f09:	0f 0b                	ud2    
 1002f0b:	85 d2                	test   edx,edx
 1002f0d:	0f 85 6a fe ff ff    	jne    1002d7d <printUserMode+0x285d>
 1002f13:	e9 82 fe ff ff       	jmp    1002d9a <printUserMode+0x287a>
 1002f18:	c7 44 24 68 00 00 00 	mov    DWORD PTR [esp+0x68],0x0
 1002f1f:	00 
 1002f20:	83 ec 0c             	sub    esp,0xc
 1002f23:	68 91 dc 01 01       	push   0x101dc91
 1002f28:	e8 a3 17 00 00       	call   10046d0 <_Z6strdupPKc>
 1002f2d:	c7 44 24 7c 00 00 00 	mov    DWORD PTR [esp+0x7c],0x0
 1002f34:	00 
 1002f35:	89 44 24 78          	mov    DWORD PTR [esp+0x78],eax
 1002f39:	58                   	pop    eax
 1002f3a:	5a                   	pop    edx
 1002f3b:	53                   	push   ebx
 1002f3c:	8d 44 24 68          	lea    eax,[esp+0x68]
 1002f40:	50                   	push   eax
 1002f41:	e8 3a 67 00 00       	call   1009680 <_ZSt7getlineRSt7istreamRSt6string>
 1002f46:	c7 04 24 30 dc 01 01 	mov    DWORD PTR [esp],0x101dc30
 1002f4d:	c7 84 24 98 00 00 00 	mov    DWORD PTR [esp+0x98],0x0
 1002f54:	00 00 00 00 
 1002f58:	e8 b3 29 00 00       	call   1005910 <_Z6strlenPKc>
 1002f5d:	83 c0 01             	add    eax,0x1
 1002f60:	89 04 24             	mov    DWORD PTR [esp],eax
 1002f63:	e8 c8 0b 00 00       	call   1003b30 <_Z6mallocj>
 1002f68:	89 84 24 98 00 00 00 	mov    DWORD PTR [esp+0x98],eax
 1002f6f:	59                   	pop    ecx
 1002f70:	5f                   	pop    edi
 1002f71:	68 30 dc 01 01       	push   0x101dc30
 1002f76:	50                   	push   eax
 1002f77:	e8 84 2c 00 00       	call   1005c00 <_Z6strcpyPcPKc>
 1002f7c:	c7 04 24 30 dc 01 01 	mov    DWORD PTR [esp],0x101dc30
 1002f83:	e8 88 29 00 00       	call   1005910 <_Z6strlenPKc>
 1002f88:	89 84 24 9c 00 00 00 	mov    DWORD PTR [esp+0x9c],eax
 1002f8f:	83 c4 0c             	add    esp,0xc
 1002f92:	56                   	push   esi
 1002f93:	53                   	push   ebx
 1002f94:	8d 84 24 88 00 00 00 	lea    eax,[esp+0x88]
 1002f9b:	50                   	push   eax
 1002f9c:	e8 bf 3c 00 00       	call   1006c60 <_ZSt8tokenizeRKSt6stringS_>
 1002fa1:	ff b4 24 94 00 00 00 	push   DWORD PTR [esp+0x94]
 1002fa8:	e8 63 0e 00 00       	call   1003e10 <_Z4freePv>
 1002fad:	83 c4 10             	add    esp,0x10
 1002fb0:	8b 84 24 80 00 00 00 	mov    eax,DWORD PTR [esp+0x80]
 1002fb7:	85 c0                	test   eax,eax
 1002fb9:	0f 84 e9 03 00 00    	je     10033a8 <printUserMode+0x2e88>
 1002fbf:	83 ec 0c             	sub    esp,0xc
 1002fc2:	68 32 dc 01 01       	push   0x101dc32
 1002fc7:	e8 44 29 00 00       	call   1005910 <_Z6strlenPKc>
 1002fcc:	83 c0 01             	add    eax,0x1
 1002fcf:	89 04 24             	mov    DWORD PTR [esp],eax
 1002fd2:	e8 59 0b 00 00       	call   1003b30 <_Z6mallocj>
 1002fd7:	89 c3                	mov    ebx,eax
 1002fd9:	58                   	pop    eax
 1002fda:	5a                   	pop    edx
 1002fdb:	68 32 dc 01 01       	push   0x101dc32
 1002fe0:	53                   	push   ebx
 1002fe1:	e8 1a 2c 00 00       	call   1005c00 <_Z6strcpyPcPKc>
 1002fe6:	c7 04 24 32 dc 01 01 	mov    DWORD PTR [esp],0x101dc32
 1002fed:	e8 1e 29 00 00       	call   1005910 <_Z6strlenPKc>
 1002ff2:	59                   	pop    ecx
 1002ff3:	5f                   	pop    edi
 1002ff4:	53                   	push   ebx
 1002ff5:	8b 84 24 88 00 00 00 	mov    eax,DWORD PTR [esp+0x88]
 1002ffc:	ff 30                	push   DWORD PTR [eax]
 1002ffe:	e8 ad 28 00 00       	call   10058b0 <_Z6strcmpPKcS0_>
 1003003:	89 c7                	mov    edi,eax
 1003005:	89 1c 24             	mov    DWORD PTR [esp],ebx
 1003008:	e8 03 0e 00 00       	call   1003e10 <_Z4freePv>
 100300d:	83 c4 10             	add    esp,0x10
 1003010:	85 ff                	test   edi,edi
 1003012:	0f 84 6c 04 00 00    	je     1003484 <printUserMode+0x2f64>
 1003018:	83 ec 0c             	sub    esp,0xc
 100301b:	68 36 dc 01 01       	push   0x101dc36
 1003020:	e8 eb 28 00 00       	call   1005910 <_Z6strlenPKc>
 1003025:	83 c0 01             	add    eax,0x1
 1003028:	89 04 24             	mov    DWORD PTR [esp],eax
 100302b:	e8 00 0b 00 00       	call   1003b30 <_Z6mallocj>
 1003030:	89 c3                	mov    ebx,eax
 1003032:	58                   	pop    eax
 1003033:	5a                   	pop    edx
 1003034:	68 36 dc 01 01       	push   0x101dc36
 1003039:	53                   	push   ebx
 100303a:	e8 c1 2b 00 00       	call   1005c00 <_Z6strcpyPcPKc>
 100303f:	c7 04 24 36 dc 01 01 	mov    DWORD PTR [esp],0x101dc36
 1003046:	e8 c5 28 00 00       	call   1005910 <_Z6strlenPKc>
 100304b:	59                   	pop    ecx
 100304c:	5f                   	pop    edi
 100304d:	53                   	push   ebx
 100304e:	8b 84 24 88 00 00 00 	mov    eax,DWORD PTR [esp+0x88]
 1003055:	ff 30                	push   DWORD PTR [eax]
 1003057:	e8 54 28 00 00       	call   10058b0 <_Z6strcmpPKcS0_>
 100305c:	89 c7                	mov    edi,eax
 100305e:	89 1c 24             	mov    DWORD PTR [esp],ebx
 1003061:	e8 aa 0d 00 00       	call   1003e10 <_Z4freePv>
 1003066:	83 c4 10             	add    esp,0x10
 1003069:	85 ff                	test   edi,edi
 100306b:	0f 85 f1 04 00 00    	jne    1003562 <printUserMode+0x3042>
 1003071:	e8 6a ae 00 00       	call   100dee0 <_Z13kclear_screenv>
 1003076:	83 ec 0c             	sub    esp,0xc
 1003079:	68 2d dc 01 01       	push   0x101dc2d
 100307e:	e8 8d 28 00 00       	call   1005910 <_Z6strlenPKc>
 1003083:	83 c0 01             	add    eax,0x1
 1003086:	89 04 24             	mov    DWORD PTR [esp],eax
 1003089:	e8 a2 0a 00 00       	call   1003b30 <_Z6mallocj>
 100308e:	89 44 24 30          	mov    DWORD PTR [esp+0x30],eax
 1003092:	89 c7                	mov    edi,eax
 1003094:	5b                   	pop    ebx
 1003095:	5e                   	pop    esi
 1003096:	68 2d dc 01 01       	push   0x101dc2d
 100309b:	50                   	push   eax
 100309c:	e8 5f 2b 00 00       	call   1005c00 <_Z6strcpyPcPKc>
 10030a1:	c7 04 24 2d dc 01 01 	mov    DWORD PTR [esp],0x101dc2d
 10030a8:	e8 63 28 00 00       	call   1005910 <_Z6strlenPKc>
 10030ad:	83 c4 10             	add    esp,0x10
 10030b0:	85 c0                	test   eax,eax
 10030b2:	0f 84 f3 03 00 00    	je     10034ab <printUserMode+0x2f8b>
 10030b8:	01 f8                	add    eax,edi
 10030ba:	89 fe                	mov    esi,edi
 10030bc:	89 44 24 10          	mov    DWORD PTR [esp+0x10],eax
 10030c0:	eb 0d                	jmp    10030cf <printUserMode+0x2baf>
 10030c2:	83 c6 01             	add    esi,0x1
 10030c5:	39 74 24 10          	cmp    DWORD PTR [esp+0x10],esi
 10030c9:	0f 84 dc 03 00 00    	je     10034ab <printUserMode+0x2f8b>
 10030cf:	8b 5c 24 58          	mov    ebx,DWORD PTR [esp+0x58]
 10030d3:	8b 03                	mov    eax,DWORD PTR [ebx]
 10030d5:	8b 10                	mov    edx,DWORD PTR [eax]
 10030d7:	0f be 06             	movsx  eax,BYTE PTR [esi]
 10030da:	81 fa 40 13 01 01    	cmp    edx,0x1011340
 10030e0:	0f 85 b6 03 00 00    	jne    100349c <printUserMode+0x2f7c>
 10030e6:	8b 53 10             	mov    edx,DWORD PTR [ebx+0x10]
 10030e9:	8d 4a 01             	lea    ecx,[edx+0x1]
 10030ec:	89 4b 10             	mov    DWORD PTR [ebx+0x10],ecx
 10030ef:	8b 4b 04             	mov    ecx,DWORD PTR [ebx+0x4]
 10030f2:	88 04 11             	mov    BYTE PTR [ecx+edx*1],al
 10030f5:	8b 53 10             	mov    edx,DWORD PTR [ebx+0x10]
 10030f8:	3b 53 08             	cmp    edx,DWORD PTR [ebx+0x8]
 10030fb:	75 c5                	jne    10030c2 <printUserMode+0x2ba2>
 10030fd:	8b 03                	mov    eax,DWORD PTR [ebx]
 10030ff:	8b 48 0c             	mov    ecx,DWORD PTR [eax+0xc]
 1003102:	81 f9 70 12 01 01    	cmp    ecx,0x1011270
 1003108:	0f 85 c1 04 00 00    	jne    10035cf <printUserMode+0x30af>
 100310e:	85 d2                	test   edx,edx
 1003110:	74 18                	je     100312a <printUserMode+0x2c0a>
 1003112:	31 ff                	xor    edi,edi
 1003114:	eb 02                	jmp    1003118 <printUserMode+0x2bf8>
 1003116:	8b 03                	mov    eax,DWORD PTR [ebx]
 1003118:	83 ec 0c             	sub    esp,0xc
 100311b:	83 c7 01             	add    edi,0x1
 100311e:	53                   	push   ebx
 100311f:	ff 50 14             	call   DWORD PTR [eax+0x14]
 1003122:	83 c4 10             	add    esp,0x10
 1003125:	39 7b 08             	cmp    DWORD PTR [ebx+0x8],edi
 1003128:	77 ec                	ja     1003116 <printUserMode+0x2bf6>
 100312a:	c7 43 10 00 00 00 00 	mov    DWORD PTR [ebx+0x10],0x0
 1003131:	c7 43 14 00 00 00 00 	mov    DWORD PTR [ebx+0x14],0x0
 1003138:	eb 88                	jmp    10030c2 <printUserMode+0x2ba2>
 100313a:	8b 5c 24 10          	mov    ebx,DWORD PTR [esp+0x10]
 100313e:	8b 6c 24 14          	mov    ebp,DWORD PTR [esp+0x14]
 1003142:	8b 4c 24 0c          	mov    ecx,DWORD PTR [esp+0xc]
 1003146:	85 c0                	test   eax,eax
 1003148:	c7 41 04 00 00 00 00 	mov    DWORD PTR [ecx+0x4],0x0
 100314f:	c7 41 08 00 00 00 00 	mov    DWORD PTR [ecx+0x8],0x0
 1003156:	74 0c                	je     1003164 <printUserMode+0x2c44>
 1003158:	83 ec 0c             	sub    esp,0xc
 100315b:	50                   	push   eax
 100315c:	e8 9f 0c 00 00       	call   1003e00 <_ZdaPv>
 1003161:	83 c4 10             	add    esp,0x10
 1003164:	83 ec 08             	sub    esp,0x8
 1003167:	6a 0c                	push   0xc
 1003169:	ff 74 24 18          	push   DWORD PTR [esp+0x18]
 100316d:	e8 6e 0c 00 00       	call   1003de0 <_ZdlPvj>
 1003172:	8b 44 24 70          	mov    eax,DWORD PTR [esp+0x70]
 1003176:	83 6d 00 01          	sub    DWORD PTR [ebp+0x0],0x1
 100317a:	83 c4 10             	add    esp,0x10
 100317d:	85 c0                	test   eax,eax
 100317f:	0f 84 f1 d7 ff ff    	je     1000976 <printUserMode+0x456>
 1003185:	89 c5                	mov    ebp,eax
 1003187:	e9 df d7 ff ff       	jmp    100096b <printUserMode+0x44b>
 100318c:	8b 5c 24 10          	mov    ebx,DWORD PTR [esp+0x10]
 1003190:	89 cd                	mov    ebp,ecx
 1003192:	85 c0                	test   eax,eax
 1003194:	c7 45 04 00 00 00 00 	mov    DWORD PTR [ebp+0x4],0x0
 100319b:	c7 45 08 00 00 00 00 	mov    DWORD PTR [ebp+0x8],0x0
 10031a2:	74 0c                	je     10031b0 <printUserMode+0x2c90>
 10031a4:	83 ec 0c             	sub    esp,0xc
 10031a7:	50                   	push   eax
 10031a8:	e8 53 0c 00 00       	call   1003e00 <_ZdaPv>
 10031ad:	83 c4 10             	add    esp,0x10
 10031b0:	83 ec 08             	sub    esp,0x8
 10031b3:	6a 0c                	push   0xc
 10031b5:	55                   	push   ebp
 10031b6:	e8 25 0c 00 00       	call   1003de0 <_ZdlPvj>
 10031bb:	8b 44 24 74          	mov    eax,DWORD PTR [esp+0x74]
 10031bf:	83 2b 01             	sub    DWORD PTR [ebx],0x1
 10031c2:	83 c4 10             	add    esp,0x10
 10031c5:	85 c0                	test   eax,eax
 10031c7:	0f 84 ad d8 ff ff    	je     1000a7a <printUserMode+0x55a>
 10031cd:	89 c3                	mov    ebx,eax
 10031cf:	e9 92 d8 ff ff       	jmp    1000a66 <printUserMode+0x546>
 10031d4:	8b 5c 24 10          	mov    ebx,DWORD PTR [esp+0x10]
 10031d8:	89 cd                	mov    ebp,ecx
 10031da:	85 c0                	test   eax,eax
 10031dc:	c7 45 04 00 00 00 00 	mov    DWORD PTR [ebp+0x4],0x0
 10031e3:	c7 45 08 00 00 00 00 	mov    DWORD PTR [ebp+0x8],0x0
 10031ea:	74 0c                	je     10031f8 <printUserMode+0x2cd8>
 10031ec:	83 ec 0c             	sub    esp,0xc
 10031ef:	50                   	push   eax
 10031f0:	e8 0b 0c 00 00       	call   1003e00 <_ZdaPv>
 10031f5:	83 c4 10             	add    esp,0x10
 10031f8:	83 ec 08             	sub    esp,0x8
 10031fb:	6a 0c                	push   0xc
 10031fd:	55                   	push   ebp
 10031fe:	e8 dd 0b 00 00       	call   1003de0 <_ZdlPvj>
 1003203:	8b 03                	mov    eax,DWORD PTR [ebx]
 1003205:	83 c4 10             	add    esp,0x10
 1003208:	e9 34 d8 ff ff       	jmp    1000a41 <printUserMode+0x521>
 100320d:	83 ec 08             	sub    esp,0x8
 1003210:	56                   	push   esi
 1003211:	57                   	push   edi
 1003212:	ff d0                	call   eax
 1003214:	83 c4 10             	add    esp,0x10
 1003217:	e9 4b eb ff ff       	jmp    1001d67 <printUserMode+0x1847>
 100321c:	89 e9                	mov    ecx,ebp
 100321e:	8b 74 24 3c          	mov    esi,DWORD PTR [esp+0x3c]
 1003222:	8b 5c 24 40          	mov    ebx,DWORD PTR [esp+0x40]
 1003226:	8b 6c 24 38          	mov    ebp,DWORD PTR [esp+0x38]
 100322a:	85 d2                	test   edx,edx
 100322c:	c7 41 04 00 00 00 00 	mov    DWORD PTR [ecx+0x4],0x0
 1003233:	c7 41 08 00 00 00 00 	mov    DWORD PTR [ecx+0x8],0x0
 100323a:	74 14                	je     1003250 <printUserMode+0x2d30>
 100323c:	89 4c 24 38          	mov    DWORD PTR [esp+0x38],ecx
 1003240:	83 ec 0c             	sub    esp,0xc
 1003243:	52                   	push   edx
 1003244:	e8 b7 0b 00 00       	call   1003e00 <_ZdaPv>
 1003249:	83 c4 10             	add    esp,0x10
 100324c:	8b 4c 24 38          	mov    ecx,DWORD PTR [esp+0x38]
 1003250:	83 ec 08             	sub    esp,0x8
 1003253:	6a 0c                	push   0xc
 1003255:	51                   	push   ecx
 1003256:	e8 85 0b 00 00       	call   1003de0 <_ZdlPvj>
 100325b:	8b 45 04             	mov    eax,DWORD PTR [ebp+0x4]
 100325e:	83 c4 10             	add    esp,0x10
 1003261:	83 2b 01             	sub    DWORD PTR [ebx],0x1
 1003264:	85 c0                	test   eax,eax
 1003266:	0f 84 b1 e5 ff ff    	je     100181d <printUserMode+0x12fd>
 100326c:	89 c3                	mov    ebx,eax
 100326e:	e9 d6 e5 ff ff       	jmp    1001849 <printUserMode+0x1329>
 1003273:	8b 5f 04             	mov    ebx,DWORD PTR [edi+0x4]
 1003276:	85 db                	test   ebx,ebx
 1003278:	0f 84 7a f3 ff ff    	je     10025f8 <printUserMode+0x20d8>
 100327e:	8b 43 04             	mov    eax,DWORD PTR [ebx+0x4]
 1003281:	85 c0                	test   eax,eax
 1003283:	74 24                	je     10032a9 <printUserMode+0x2d89>
 1003285:	31 d2                	xor    edx,edx
 1003287:	8b 03                	mov    eax,DWORD PTR [ebx]
 1003289:	83 ec 0c             	sub    esp,0xc
 100328c:	89 54 24 58          	mov    DWORD PTR [esp+0x58],edx
 1003290:	8d 44 d0 04          	lea    eax,[eax+edx*8+0x4]
 1003294:	50                   	push   eax
 1003295:	e8 f6 e4 00 00       	call   1011790 <_ZNSt10shared_ptrIN8keyboard5StateESt15default_deleterIS1_EE3decEv>
 100329a:	8b 54 24 5c          	mov    edx,DWORD PTR [esp+0x5c]
 100329e:	83 c4 10             	add    esp,0x10
 10032a1:	83 c2 01             	add    edx,0x1
 10032a4:	39 53 04             	cmp    DWORD PTR [ebx+0x4],edx
 10032a7:	77 de                	ja     1003287 <printUserMode+0x2d67>
 10032a9:	8b 13                	mov    edx,DWORD PTR [ebx]
 10032ab:	c7 43 04 00 00 00 00 	mov    DWORD PTR [ebx+0x4],0x0
 10032b2:	c7 43 08 00 00 00 00 	mov    DWORD PTR [ebx+0x8],0x0
 10032b9:	85 d2                	test   edx,edx
 10032bb:	74 0c                	je     10032c9 <printUserMode+0x2da9>
 10032bd:	83 ec 0c             	sub    esp,0xc
 10032c0:	52                   	push   edx
 10032c1:	e8 3a 0b 00 00       	call   1003e00 <_ZdaPv>
 10032c6:	83 c4 10             	add    esp,0x10
 10032c9:	83 ec 08             	sub    esp,0x8
 10032cc:	6a 0c                	push   0xc
 10032ce:	53                   	push   ebx
 10032cf:	e8 0c 0b 00 00       	call   1003de0 <_ZdlPvj>
 10032d4:	8b 45 04             	mov    eax,DWORD PTR [ebp+0x4]
 10032d7:	83 c4 10             	add    esp,0x10
 10032da:	83 2f 01             	sub    DWORD PTR [edi],0x1
 10032dd:	85 c0                	test   eax,eax
 10032df:	0f 84 e8 f2 ff ff    	je     10025cd <printUserMode+0x20ad>
 10032e5:	89 c7                	mov    edi,eax
 10032e7:	e9 11 f3 ff ff       	jmp    10025fd <printUserMode+0x20dd>
 10032ec:	8b 58 04             	mov    ebx,DWORD PTR [eax+0x4]
 10032ef:	83 ec 0c             	sub    esp,0xc
 10032f2:	8d 43 04             	lea    eax,[ebx+0x4]
 10032f5:	50                   	push   eax
 10032f6:	e8 05 e7 00 00       	call   1011a00 <_ZNSt10shared_ptrISt11__dequeNodeIjESt15default_deleterIS1_EE3decEv>
 10032fb:	8b 84 24 88 00 00 00 	mov    eax,DWORD PTR [esp+0x88]
 1003302:	c7 43 04 00 00 00 00 	mov    DWORD PTR [ebx+0x4],0x0
 1003309:	83 c4 10             	add    esp,0x10
 100330c:	e9 27 ef ff ff       	jmp    1002238 <printUserMode+0x1d18>
 1003311:	8b 46 04             	mov    eax,DWORD PTR [esi+0x4]
 1003314:	85 c0                	test   eax,eax
 1003316:	0f 84 9c f4 ff ff    	je     10027b8 <printUserMode+0x2298>
 100331c:	8b 50 04             	mov    edx,DWORD PTR [eax+0x4]
 100331f:	85 d2                	test   edx,edx
 1003321:	74 2c                	je     100334f <printUserMode+0x2e2f>
 1003323:	31 d2                	xor    edx,edx
 1003325:	8b 08                	mov    ecx,DWORD PTR [eax]
 1003327:	83 ec 0c             	sub    esp,0xc
 100332a:	89 54 24 44          	mov    DWORD PTR [esp+0x44],edx
 100332e:	89 44 24 48          	mov    DWORD PTR [esp+0x48],eax
 1003332:	8d 4c d1 04          	lea    ecx,[ecx+edx*8+0x4]
 1003336:	51                   	push   ecx
 1003337:	e8 54 e4 00 00       	call   1011790 <_ZNSt10shared_ptrIN8keyboard5StateESt15default_deleterIS1_EE3decEv>
 100333c:	8b 54 24 48          	mov    edx,DWORD PTR [esp+0x48]
 1003340:	83 c4 10             	add    esp,0x10
 1003343:	8b 44 24 3c          	mov    eax,DWORD PTR [esp+0x3c]
 1003347:	83 c2 01             	add    edx,0x1
 100334a:	39 50 04             	cmp    DWORD PTR [eax+0x4],edx
 100334d:	77 d6                	ja     1003325 <printUserMode+0x2e05>
 100334f:	8b 10                	mov    edx,DWORD PTR [eax]
 1003351:	c7 40 04 00 00 00 00 	mov    DWORD PTR [eax+0x4],0x0
 1003358:	c7 40 08 00 00 00 00 	mov    DWORD PTR [eax+0x8],0x0
 100335f:	85 d2                	test   edx,edx
 1003361:	74 14                	je     1003377 <printUserMode+0x2e57>
 1003363:	89 44 24 38          	mov    DWORD PTR [esp+0x38],eax
 1003367:	83 ec 0c             	sub    esp,0xc
 100336a:	52                   	push   edx
 100336b:	e8 90 0a 00 00       	call   1003e00 <_ZdaPv>
 1003370:	83 c4 10             	add    esp,0x10
 1003373:	8b 44 24 38          	mov    eax,DWORD PTR [esp+0x38]
 1003377:	83 ec 08             	sub    esp,0x8
 100337a:	6a 0c                	push   0xc
 100337c:	50                   	push   eax
 100337d:	e8 5e 0a 00 00       	call   1003de0 <_ZdlPvj>
 1003382:	8b 47 04             	mov    eax,DWORD PTR [edi+0x4]
 1003385:	83 c4 10             	add    esp,0x10
 1003388:	83 2e 01             	sub    DWORD PTR [esi],0x1
 100338b:	85 c0                	test   eax,eax
 100338d:	0f 84 01 f4 ff ff    	je     1002794 <printUserMode+0x2274>
 1003393:	89 c6                	mov    esi,eax
 1003395:	e9 23 f4 ff ff       	jmp    10027bd <printUserMode+0x229d>
 100339a:	83 ec 0c             	sub    esp,0xc
 100339d:	53                   	push   ebx
 100339e:	ff d2                	call   edx
 10033a0:	83 c4 10             	add    esp,0x10
 10033a3:	e9 60 db ff ff       	jmp    1000f08 <printUserMode+0x9e8>
 10033a8:	83 ec 08             	sub    esp,0x8
 10033ab:	68 2d dc 01 01       	push   0x101dc2d
 10033b0:	8d 44 24 64          	lea    eax,[esp+0x64]
 10033b4:	50                   	push   eax
 10033b5:	e8 26 e1 00 00       	call   10114e0 <_ZStlsRSt7ostreamPKc>
 10033ba:	8b 5c 24 68          	mov    ebx,DWORD PTR [esp+0x68]
 10033be:	83 c4 10             	add    esp,0x10
 10033c1:	8b 03                	mov    eax,DWORD PTR [ebx]
 10033c3:	8b 50 0c             	mov    edx,DWORD PTR [eax+0xc]
 10033c6:	81 fa 70 12 01 01    	cmp    edx,0x1011270
 10033cc:	0f 85 bc 00 00 00    	jne    100348e <printUserMode+0x2f6e>
 10033d2:	8b 53 08             	mov    edx,DWORD PTR [ebx+0x8]
 10033d5:	85 d2                	test   edx,edx
 10033d7:	74 18                	je     10033f1 <printUserMode+0x2ed1>
 10033d9:	31 f6                	xor    esi,esi
 10033db:	eb 02                	jmp    10033df <printUserMode+0x2ebf>
 10033dd:	8b 03                	mov    eax,DWORD PTR [ebx]
 10033df:	83 ec 0c             	sub    esp,0xc
 10033e2:	83 c6 01             	add    esi,0x1
 10033e5:	53                   	push   ebx
 10033e6:	ff 50 14             	call   DWORD PTR [eax+0x14]
 10033e9:	83 c4 10             	add    esp,0x10
 10033ec:	39 73 08             	cmp    DWORD PTR [ebx+0x8],esi
 10033ef:	77 ec                	ja     10033dd <printUserMode+0x2ebd>
 10033f1:	c7 43 10 00 00 00 00 	mov    DWORD PTR [ebx+0x10],0x0
 10033f8:	c7 43 14 00 00 00 00 	mov    DWORD PTR [ebx+0x14],0x0
 10033ff:	83 ec 0c             	sub    esp,0xc
 1003402:	8d 84 24 88 00 00 00 	lea    eax,[esp+0x88]
 1003409:	50                   	push   eax
 100340a:	e8 81 e6 00 00       	call   1011a90 <_ZNSt6vectorISt6stringE5clearEv>
 100340f:	5f                   	pop    edi
 1003410:	ff 74 24 74          	push   DWORD PTR [esp+0x74]
 1003414:	e8 f7 09 00 00       	call   1003e10 <_Z4freePv>
 1003419:	83 c4 10             	add    esp,0x10
 100341c:	e9 b3 d9 ff ff       	jmp    1000dd4 <printUserMode+0x8b4>
 1003421:	85 c9                	test   ecx,ecx
 1003423:	0f 85 0f ee ff ff    	jne    1002238 <printUserMode+0x1d18>
 1003429:	e9 cf ef ff ff       	jmp    10023fd <printUserMode+0x1edd>
 100342e:	66 90                	xchg   ax,ax
 1003430:	8b 6c 24 40          	mov    ebp,DWORD PTR [esp+0x40]
 1003434:	8b 74 24 44          	mov    esi,DWORD PTR [esp+0x44]
 1003438:	8b 5c 24 48          	mov    ebx,DWORD PTR [esp+0x48]
 100343c:	8b 4c 24 20          	mov    ecx,DWORD PTR [esp+0x20]
 1003440:	85 c0                	test   eax,eax
 1003442:	c7 41 04 00 00 00 00 	mov    DWORD PTR [ecx+0x4],0x0
 1003449:	c7 41 08 00 00 00 00 	mov    DWORD PTR [ecx+0x8],0x0
 1003450:	74 0c                	je     100345e <printUserMode+0x2f3e>
 1003452:	83 ec 0c             	sub    esp,0xc
 1003455:	50                   	push   eax
 1003456:	e8 a5 09 00 00       	call   1003e00 <_ZdaPv>
 100345b:	83 c4 10             	add    esp,0x10
 100345e:	83 ec 08             	sub    esp,0x8
 1003461:	6a 0c                	push   0xc
 1003463:	ff 74 24 2c          	push   DWORD PTR [esp+0x2c]
 1003467:	e8 74 09 00 00       	call   1003de0 <_ZdlPvj>
 100346c:	8b 45 04             	mov    eax,DWORD PTR [ebp+0x4]
 100346f:	83 c4 10             	add    esp,0x10
 1003472:	83 2b 01             	sub    DWORD PTR [ebx],0x1
 1003475:	85 c0                	test   eax,eax
 1003477:	0f 84 46 e6 ff ff    	je     1001ac3 <printUserMode+0x15a3>
 100347d:	89 c3                	mov    ebx,eax
 100347f:	e9 6b e6 ff ff       	jmp    1001aef <printUserMode+0x15cf>
 1003484:	e8 87 d4 00 00       	call   1010910 <_ZN3pci11printBussesEv>
 1003489:	e9 e8 fb ff ff       	jmp    1003076 <printUserMode+0x2b56>
 100348e:	83 ec 0c             	sub    esp,0xc
 1003491:	53                   	push   ebx
 1003492:	ff d2                	call   edx
 1003494:	83 c4 10             	add    esp,0x10
 1003497:	e9 63 ff ff ff       	jmp    10033ff <printUserMode+0x2edf>
 100349c:	83 ec 08             	sub    esp,0x8
 100349f:	50                   	push   eax
 10034a0:	53                   	push   ebx
 10034a1:	ff d2                	call   edx
 10034a3:	83 c4 10             	add    esp,0x10
 10034a6:	e9 17 fc ff ff       	jmp    10030c2 <printUserMode+0x2ba2>
 10034ab:	83 ec 0c             	sub    esp,0xc
 10034ae:	ff 74 24 2c          	push   DWORD PTR [esp+0x2c]
 10034b2:	e8 59 09 00 00       	call   1003e10 <_Z4freePv>
 10034b7:	8b 5c 24 68          	mov    ebx,DWORD PTR [esp+0x68]
 10034bb:	83 c4 10             	add    esp,0x10
 10034be:	8b 03                	mov    eax,DWORD PTR [ebx]
 10034c0:	8b 50 0c             	mov    edx,DWORD PTR [eax+0xc]
 10034c3:	81 fa 70 12 01 01    	cmp    edx,0x1011270
 10034c9:	75 c3                	jne    100348e <printUserMode+0x2f6e>
 10034cb:	8b 4b 08             	mov    ecx,DWORD PTR [ebx+0x8]
 10034ce:	85 c9                	test   ecx,ecx
 10034d0:	0f 84 1b ff ff ff    	je     10033f1 <printUserMode+0x2ed1>
 10034d6:	31 f6                	xor    esi,esi
 10034d8:	eb 02                	jmp    10034dc <printUserMode+0x2fbc>
 10034da:	8b 03                	mov    eax,DWORD PTR [ebx]
 10034dc:	83 ec 0c             	sub    esp,0xc
 10034df:	83 c6 01             	add    esi,0x1
 10034e2:	53                   	push   ebx
 10034e3:	ff 50 14             	call   DWORD PTR [eax+0x14]
 10034e6:	83 c4 10             	add    esp,0x10
 10034e9:	39 73 08             	cmp    DWORD PTR [ebx+0x8],esi
 10034ec:	77 ec                	ja     10034da <printUserMode+0x2fba>
 10034ee:	e9 fe fe ff ff       	jmp    10033f1 <printUserMode+0x2ed1>
 10034f3:	8b 74 24 30          	mov    esi,DWORD PTR [esp+0x30]
 10034f7:	8b 5c 24 34          	mov    ebx,DWORD PTR [esp+0x34]
 10034fb:	85 c0                	test   eax,eax
 10034fd:	c7 45 04 00 00 00 00 	mov    DWORD PTR [ebp+0x4],0x0
 1003504:	c7 45 08 00 00 00 00 	mov    DWORD PTR [ebp+0x8],0x0
 100350b:	74 0c                	je     1003519 <printUserMode+0x2ff9>
 100350d:	83 ec 0c             	sub    esp,0xc
 1003510:	50                   	push   eax
 1003511:	e8 ea 08 00 00       	call   1003e00 <_ZdaPv>
 1003516:	83 c4 10             	add    esp,0x10
 1003519:	83 ec 08             	sub    esp,0x8
 100351c:	6a 0c                	push   0xc
 100351e:	55                   	push   ebp
 100351f:	e8 bc 08 00 00       	call   1003de0 <_ZdlPvj>
 1003524:	8b 44 24 30          	mov    eax,DWORD PTR [esp+0x30]
 1003528:	83 c4 10             	add    esp,0x10
 100352b:	8b 40 04             	mov    eax,DWORD PTR [eax+0x4]
 100352e:	83 2b 01             	sub    DWORD PTR [ebx],0x1
 1003531:	85 c0                	test   eax,eax
 1003533:	0f 84 d1 ef ff ff    	je     100250a <printUserMode+0x1fea>
 1003539:	89 c3                	mov    ebx,eax
 100353b:	e9 fe ef ff ff       	jmp    100253e <printUserMode+0x201e>
 1003540:	8b 54 24 7c          	mov    edx,DWORD PTR [esp+0x7c]
 1003544:	85 d2                	test   edx,edx
 1003546:	0f 85 26 da ff ff    	jne    1000f72 <printUserMode+0xa52>
 100354c:	8b 6c 24 10          	mov    ebp,DWORD PTR [esp+0x10]
 1003550:	e9 dc f7 ff ff       	jmp    1002d31 <printUserMode+0x2811>
 1003555:	c7 44 24 68 00 00 00 	mov    DWORD PTR [esp+0x68],0x0
 100355c:	00 
 100355d:	e9 e0 d9 ff ff       	jmp    1000f42 <printUserMode+0xa22>
 1003562:	83 ec 0c             	sub    esp,0xc
 1003565:	68 3c dc 01 01       	push   0x101dc3c
 100356a:	e8 a1 23 00 00       	call   1005910 <_Z6strlenPKc>
 100356f:	83 c0 01             	add    eax,0x1
 1003572:	89 04 24             	mov    DWORD PTR [esp],eax
 1003575:	e8 b6 05 00 00       	call   1003b30 <_Z6mallocj>
 100357a:	89 c3                	mov    ebx,eax
 100357c:	58                   	pop    eax
 100357d:	5a                   	pop    edx
 100357e:	68 3c dc 01 01       	push   0x101dc3c
 1003583:	53                   	push   ebx
 1003584:	e8 77 26 00 00       	call   1005c00 <_Z6strcpyPcPKc>
 1003589:	c7 04 24 3c dc 01 01 	mov    DWORD PTR [esp],0x101dc3c
 1003590:	e8 7b 23 00 00       	call   1005910 <_Z6strlenPKc>
 1003595:	59                   	pop    ecx
 1003596:	5f                   	pop    edi
 1003597:	53                   	push   ebx
 1003598:	8b 84 24 88 00 00 00 	mov    eax,DWORD PTR [esp+0x88]
 100359f:	ff 30                	push   DWORD PTR [eax]
 10035a1:	e8 0a 23 00 00       	call   10058b0 <_Z6strcmpPKcS0_>
 10035a6:	89 c7                	mov    edi,eax
 10035a8:	89 1c 24             	mov    DWORD PTR [esp],ebx
 10035ab:	e8 60 08 00 00       	call   1003e10 <_Z4freePv>
 10035b0:	83 c4 10             	add    esp,0x10
 10035b3:	85 ff                	test   edi,edi
 10035b5:	75 26                	jne    10035dd <printUserMode+0x30bd>
 10035b7:	e8 64 08 00 00       	call   1003e20 <_ZN8memmanip11printMemoryEv>
 10035bc:	e9 b5 fa ff ff       	jmp    1003076 <printUserMode+0x2b56>
 10035c1:	83 ec 0c             	sub    esp,0xc
 10035c4:	57                   	push   edi
 10035c5:	ff d1                	call   ecx
 10035c7:	83 c4 10             	add    esp,0x10
 10035ca:	e9 98 e7 ff ff       	jmp    1001d67 <printUserMode+0x1847>
 10035cf:	83 ec 0c             	sub    esp,0xc
 10035d2:	53                   	push   ebx
 10035d3:	ff d1                	call   ecx
 10035d5:	83 c4 10             	add    esp,0x10
 10035d8:	e9 e5 fa ff ff       	jmp    10030c2 <printUserMode+0x2ba2>
 10035dd:	83 ec 0c             	sub    esp,0xc
 10035e0:	68 45 dc 01 01       	push   0x101dc45
 10035e5:	e8 26 23 00 00       	call   1005910 <_Z6strlenPKc>
 10035ea:	83 c0 01             	add    eax,0x1
 10035ed:	89 04 24             	mov    DWORD PTR [esp],eax
 10035f0:	e8 3b 05 00 00       	call   1003b30 <_Z6mallocj>
 10035f5:	89 c3                	mov    ebx,eax
 10035f7:	58                   	pop    eax
 10035f8:	5a                   	pop    edx
 10035f9:	68 45 dc 01 01       	push   0x101dc45
 10035fe:	53                   	push   ebx
 10035ff:	e8 fc 25 00 00       	call   1005c00 <_Z6strcpyPcPKc>
 1003604:	c7 04 24 45 dc 01 01 	mov    DWORD PTR [esp],0x101dc45
 100360b:	e8 00 23 00 00       	call   1005910 <_Z6strlenPKc>
 1003610:	59                   	pop    ecx
 1003611:	5f                   	pop    edi
 1003612:	53                   	push   ebx
 1003613:	8b 84 24 88 00 00 00 	mov    eax,DWORD PTR [esp+0x88]
 100361a:	ff 30                	push   DWORD PTR [eax]
 100361c:	e8 8f 22 00 00       	call   10058b0 <_Z6strcmpPKcS0_>
 1003621:	89 c7                	mov    edi,eax
 1003623:	89 1c 24             	mov    DWORD PTR [esp],ebx
 1003626:	e8 e5 07 00 00       	call   1003e10 <_Z4freePv>
 100362b:	83 c4 10             	add    esp,0x10
 100362e:	85 ff                	test   edi,edi
 1003630:	0f 85 ad 00 00 00    	jne    10036e3 <printUserMode+0x31c3>
 1003636:	8b 84 24 80 00 00 00 	mov    eax,DWORD PTR [esp+0x80]
 100363d:	8b 9c 24 84 00 00 00 	mov    ebx,DWORD PTR [esp+0x84]
 1003644:	83 ec 0c             	sub    esp,0xc
 1003647:	c7 84 24 94 00 00 00 	mov    DWORD PTR [esp+0x94],0x0
 100364e:	00 00 00 00 
 1003652:	c7 84 24 9c 00 00 00 	mov    DWORD PTR [esp+0x9c],0x0
 1003659:	00 00 00 00 
 100365d:	89 84 24 98 00 00 00 	mov    DWORD PTR [esp+0x98],eax
 1003664:	53                   	push   ebx
 1003665:	e8 e6 04 00 00       	call   1003b50 <_Znaj>
 100366a:	8b 94 24 98 00 00 00 	mov    edx,DWORD PTR [esp+0x98]
 1003671:	83 c4 10             	add    esp,0x10
 1003674:	89 c7                	mov    edi,eax
 1003676:	85 d2                	test   edx,edx
 1003678:	74 2d                	je     10036a7 <printUserMode+0x3187>
 100367a:	50                   	push   eax
 100367b:	8b 84 24 90 00 00 00 	mov    eax,DWORD PTR [esp+0x90]
 1003682:	c1 e0 03             	shl    eax,0x3
 1003685:	50                   	push   eax
 1003686:	52                   	push   edx
 1003687:	57                   	push   edi
 1003688:	e8 e3 19 00 00       	call   1005070 <_Z6memcpyPvPKvj>
 100368d:	8b 84 24 98 00 00 00 	mov    eax,DWORD PTR [esp+0x98]
 1003694:	83 c4 10             	add    esp,0x10
 1003697:	85 c0                	test   eax,eax
 1003699:	74 0c                	je     10036a7 <printUserMode+0x3187>
 100369b:	83 ec 0c             	sub    esp,0xc
 100369e:	50                   	push   eax
 100369f:	e8 5c 07 00 00       	call   1003e00 <_ZdaPv>
 10036a4:	83 c4 10             	add    esp,0x10
 10036a7:	03 9c 24 90 00 00 00 	add    ebx,DWORD PTR [esp+0x90]
 10036ae:	89 bc 24 88 00 00 00 	mov    DWORD PTR [esp+0x88],edi
 10036b5:	89 9c 24 90 00 00 00 	mov    DWORD PTR [esp+0x90],ebx
 10036bc:	51                   	push   ecx
 10036bd:	53                   	push   ebx
 10036be:	ff b4 24 84 00 00 00 	push   DWORD PTR [esp+0x84]
 10036c5:	57                   	push   edi
 10036c6:	e8 a5 19 00 00       	call   1005070 <_Z6memcpyPvPKvj>
 10036cb:	89 34 24             	mov    DWORD PTR [esp],esi
 10036ce:	e8 1d ce ff ff       	call   10004f0 <_Z7hexdumpSt6vectorISt6stringE>
 10036d3:	89 34 24             	mov    DWORD PTR [esp],esi
 10036d6:	e8 b5 e3 00 00       	call   1011a90 <_ZNSt6vectorISt6stringE5clearEv>
 10036db:	83 c4 10             	add    esp,0x10
 10036de:	e9 93 f9 ff ff       	jmp    1003076 <printUserMode+0x2b56>
 10036e3:	83 ec 0c             	sub    esp,0xc
 10036e6:	68 4d dc 01 01       	push   0x101dc4d
 10036eb:	e8 20 22 00 00       	call   1005910 <_Z6strlenPKc>
 10036f0:	83 c0 01             	add    eax,0x1
 10036f3:	89 04 24             	mov    DWORD PTR [esp],eax
 10036f6:	e8 35 04 00 00       	call   1003b30 <_Z6mallocj>
 10036fb:	5f                   	pop    edi
 10036fc:	89 c3                	mov    ebx,eax
 10036fe:	58                   	pop    eax
 10036ff:	68 4d dc 01 01       	push   0x101dc4d
 1003704:	53                   	push   ebx
 1003705:	e8 f6 24 00 00       	call   1005c00 <_Z6strcpyPcPKc>
 100370a:	c7 04 24 4d dc 01 01 	mov    DWORD PTR [esp],0x101dc4d
 1003711:	e8 fa 21 00 00       	call   1005910 <_Z6strlenPKc>
 1003716:	58                   	pop    eax
 1003717:	5a                   	pop    edx
 1003718:	53                   	push   ebx
 1003719:	8b 84 24 88 00 00 00 	mov    eax,DWORD PTR [esp+0x88]
 1003720:	ff 30                	push   DWORD PTR [eax]
 1003722:	e8 89 21 00 00       	call   10058b0 <_Z6strcmpPKcS0_>
 1003727:	89 c7                	mov    edi,eax
 1003729:	89 1c 24             	mov    DWORD PTR [esp],ebx
 100372c:	e8 df 06 00 00       	call   1003e10 <_Z4freePv>
 1003731:	83 c4 10             	add    esp,0x10
 1003734:	85 ff                	test   edi,edi
 1003736:	75 27                	jne    100375f <printUserMode+0x323f>
 1003738:	c6 44 24 0c 00       	mov    BYTE PTR [esp+0xc],0x0
 100373d:	e9 34 f9 ff ff       	jmp    1003076 <printUserMode+0x2b56>
 1003742:	81 fd 13 05 00 00    	cmp    ebp,0x513
 1003748:	0f 85 81 00 00 00    	jne    10037cf <printUserMode+0x32af>
 100374e:	c6 44 24 1f 00       	mov    BYTE PTR [esp+0x1f],0x0
 1003753:	e9 93 d6 ff ff       	jmp    1000deb <printUserMode+0x8cb>
 1003758:	31 c0                	xor    eax,eax
 100375a:	e9 21 d8 ff ff       	jmp    1000f80 <printUserMode+0xa60>
 100375f:	50                   	push   eax
 1003760:	50                   	push   eax
 1003761:	68 52 dc 01 01       	push   0x101dc52
 1003766:	56                   	push   esi
 1003767:	e8 54 dc 00 00       	call   10113c0 <_ZNSt6stringC1EPKc>
 100376c:	58                   	pop    eax
 100376d:	5a                   	pop    edx
 100376e:	ff b4 24 90 00 00 00 	push   DWORD PTR [esp+0x90]
 1003775:	8b 84 24 88 00 00 00 	mov    eax,DWORD PTR [esp+0x88]
 100377c:	ff 30                	push   DWORD PTR [eax]
 100377e:	e8 2d 21 00 00       	call   10058b0 <_Z6strcmpPKcS0_>
 1003783:	59                   	pop    ecx
 1003784:	ff b4 24 94 00 00 00 	push   DWORD PTR [esp+0x94]
 100378b:	89 c3                	mov    ebx,eax
 100378d:	e8 7e 06 00 00       	call   1003e10 <_Z4freePv>
 1003792:	83 c4 10             	add    esp,0x10
 1003795:	85 db                	test   ebx,ebx
 1003797:	75 4f                	jne    10037e8 <printUserMode+0x32c8>
 1003799:	e8 52 0b 00 00       	call   10042f0 <_ZN4boot12get_ram_sizeEv>
 100379e:	c1 e8 14             	shr    eax,0x14
 10037a1:	53                   	push   ebx
 10037a2:	53                   	push   ebx
 10037a3:	50                   	push   eax
 10037a4:	8d 44 24 64          	lea    eax,[esp+0x64]
 10037a8:	50                   	push   eax
 10037a9:	e8 52 dc 00 00       	call   1011400 <_ZNSt7ostream7putUIntEj>
 10037ae:	5e                   	pop    esi
 10037af:	5f                   	pop    edi
 10037b0:	68 5a dc 01 01       	push   0x101dc5a
 10037b5:	8d 44 24 64          	lea    eax,[esp+0x64]
 10037b9:	50                   	push   eax
 10037ba:	e8 21 dd 00 00       	call   10114e0 <_ZStlsRSt7ostreamPKc>
 10037bf:	89 04 24             	mov    DWORD PTR [esp],eax
 10037c2:	e8 39 a0 00 00       	call   100d800 <_ZSt4endlRSt7ostream>
 10037c7:	83 c4 10             	add    esp,0x10
 10037ca:	e9 a7 f8 ff ff       	jmp    1003076 <printUserMode+0x2b56>
 10037cf:	81 fd e1 03 00 00    	cmp    ebp,0x3e1
 10037d5:	75 41                	jne    1003818 <printUserMode+0x32f8>
 10037d7:	0f b6 44 24 14       	movzx  eax,BYTE PTR [esp+0x14]
 10037dc:	83 f0 01             	xor    eax,0x1
 10037df:	88 44 24 18          	mov    BYTE PTR [esp+0x18],al
 10037e3:	e9 03 d6 ff ff       	jmp    1000deb <printUserMode+0x8cb>
 10037e8:	57                   	push   edi
 10037e9:	57                   	push   edi
 10037ea:	68 5d dc 01 01       	push   0x101dc5d
 10037ef:	8d 44 24 64          	lea    eax,[esp+0x64]
 10037f3:	50                   	push   eax
 10037f4:	e8 e7 dc 00 00       	call   10114e0 <_ZStlsRSt7ostreamPKc>
 10037f9:	5a                   	pop    edx
 10037fa:	59                   	pop    ecx
 10037fb:	ff b4 24 84 00 00 00 	push   DWORD PTR [esp+0x84]
 1003802:	50                   	push   eax
 1003803:	e8 e8 dd 00 00       	call   10115f0 <_ZStlsRSt7ostreamRKSt6string>
 1003808:	89 04 24             	mov    DWORD PTR [esp],eax
 100380b:	e8 f0 9f 00 00       	call   100d800 <_ZSt4endlRSt7ostream>
 1003810:	83 c4 10             	add    esp,0x10
 1003813:	e9 5e f8 ff ff       	jmp    1003076 <printUserMode+0x2b56>
 1003818:	81 fd e1 05 00 00    	cmp    ebp,0x5e1
 100381e:	0f 85 a5 d6 ff ff    	jne    1000ec9 <printUserMode+0x9a9>
 1003824:	80 74 24 14 01       	xor    BYTE PTR [esp+0x14],0x1
 1003829:	e9 bd d5 ff ff       	jmp    1000deb <printUserMode+0x8cb>
 100382e:	66 90                	xchg   ax,ax

01003830 <_ZnwjPv>:
 1003830:	8b 44 24 08          	mov    eax,DWORD PTR [esp+0x8]
 1003834:	c3                   	ret    
 1003835:	8d 74 26 00          	lea    esi,[esi+eiz*1+0x0]
 1003839:	8d bc 27 00 00 00 00 	lea    edi,[edi+eiz*1+0x0]

01003840 <_ZnajPv>:
 1003840:	8b 44 24 08          	mov    eax,DWORD PTR [esp+0x8]
 1003844:	c3                   	ret    
 1003845:	8d 74 26 00          	lea    esi,[esi+eiz*1+0x0]
 1003849:	8d bc 27 00 00 00 00 	lea    edi,[edi+eiz*1+0x0]

01003850 <_ZdlPvS_>:
 1003850:	f3 c3                	repz ret 
 1003852:	8d b4 26 00 00 00 00 	lea    esi,[esi+eiz*1+0x0]
 1003859:	8d bc 27 00 00 00 00 	lea    edi,[edi+eiz*1+0x0]

01003860 <_ZdaPvS_>:
 1003860:	f3 c3                	repz ret 
 1003862:	8d b4 26 00 00 00 00 	lea    esi,[esi+eiz*1+0x0]
 1003869:	8d bc 27 00 00 00 00 	lea    edi,[edi+eiz*1+0x0]

01003870 <_ZN8memmanip4sbrkEj>:
 1003870:	a1 0c 00 02 01       	mov    eax,ds:0x102000c
 1003875:	8b 54 24 04          	mov    edx,DWORD PTR [esp+0x4]
 1003879:	01 c2                	add    edx,eax
 100387b:	89 15 0c 00 02 01    	mov    DWORD PTR ds:0x102000c,edx
 1003881:	c3                   	ret    
 1003882:	8d b4 26 00 00 00 00 	lea    esi,[esi+eiz*1+0x0]
 1003889:	8d bc 27 00 00 00 00 	lea    edi,[edi+eiz*1+0x0]

01003890 <_ZN8memmanip4initEPv>:
 1003890:	8b 44 24 04          	mov    eax,DWORD PTR [esp+0x4]
 1003894:	8d 50 10             	lea    edx,[eax+0x10]
 1003897:	a3 10 00 02 01       	mov    ds:0x1020010,eax
 100389c:	a3 04 00 02 01       	mov    ds:0x1020004,eax
 10038a1:	a3 08 00 02 01       	mov    ds:0x1020008,eax
 10038a6:	c7 40 04 00 00 00 00 	mov    DWORD PTR [eax+0x4],0x0
 10038ad:	89 15 0c 00 02 01    	mov    DWORD PTR ds:0x102000c,edx
 10038b3:	c7 40 08 00 00 00 00 	mov    DWORD PTR [eax+0x8],0x0
 10038ba:	c7 00 04 00 00 80    	mov    DWORD PTR [eax],0x80000004
 10038c0:	c7 40 0c 04 00 00 80 	mov    DWORD PTR [eax+0xc],0x80000004
 10038c7:	c3                   	ret    
 10038c8:	90                   	nop
 10038c9:	8d b4 26 00 00 00 00 	lea    esi,[esi+eiz*1+0x0]

010038d0 <_ZN8memmanip16addFreeChunkTagsEPvjS0_S0_>:
 10038d0:	53                   	push   ebx
 10038d1:	8b 44 24 08          	mov    eax,DWORD PTR [esp+0x8]
 10038d5:	8b 5c 24 10          	mov    ebx,DWORD PTR [esp+0x10]
 10038d9:	8b 54 24 0c          	mov    edx,DWORD PTR [esp+0xc]
 10038dd:	89 58 04             	mov    DWORD PTR [eax+0x4],ebx
 10038e0:	8b 5c 24 14          	mov    ebx,DWORD PTR [esp+0x14]
 10038e4:	89 d1                	mov    ecx,edx
 10038e6:	81 c9 00 00 00 80    	or     ecx,0x80000000
 10038ec:	89 08                	mov    DWORD PTR [eax],ecx
 10038ee:	89 58 08             	mov    DWORD PTR [eax+0x8],ebx
 10038f1:	89 4c 90 fc          	mov    DWORD PTR [eax+edx*4-0x4],ecx
 10038f5:	5b                   	pop    ebx
 10038f6:	c3                   	ret    
 10038f7:	89 f6                	mov    esi,esi
 10038f9:	8d bc 27 00 00 00 00 	lea    edi,[edi+eiz*1+0x0]

01003900 <_ZN8memmanip17addAllocChunkTagsEPvj>:
 1003900:	8b 44 24 04          	mov    eax,DWORD PTR [esp+0x4]
 1003904:	8b 54 24 08          	mov    edx,DWORD PTR [esp+0x8]
 1003908:	89 54 90 fc          	mov    DWORD PTR [eax+edx*4-0x4],edx
 100390c:	89 10                	mov    DWORD PTR [eax],edx
 100390e:	c7 40 04 33 00 00 00 	mov    DWORD PTR [eax+0x4],0x33
 1003915:	c7 40 08 33 00 00 00 	mov    DWORD PTR [eax+0x8],0x33
 100391c:	c3                   	ret    
 100391d:	8d 76 00             	lea    esi,[esi+0x0]

01003920 <_ZN8memmanip7getSizeEPv>:
 1003920:	8b 44 24 04          	mov    eax,DWORD PTR [esp+0x4]
 1003924:	8b 00                	mov    eax,DWORD PTR [eax]
 1003926:	c1 e0 02             	shl    eax,0x2
 1003929:	c3                   	ret    
 100392a:	8d b6 00 00 00 00    	lea    esi,[esi+0x0]

01003930 <_ZN8memmanip13getFreeStatusEPv>:
 1003930:	8b 44 24 04          	mov    eax,DWORD PTR [esp+0x4]
